Archive member included to satisfy reference by file (symbol)

C:/Program Files (x86)/GNU Tools ARM Embedded/5.4 2016q2/arm-none-eabi/lib/fpu/libc.a(lib_a-abs.o)
                              Screen.o (abs)
C:/Program Files (x86)/GNU Tools ARM Embedded/5.4 2016q2/arm-none-eabi/lib/fpu/libc.a(lib_a-aeabi_atexit.o)
                              main.o (__aeabi_atexit)
C:/Program Files (x86)/GNU Tools ARM Embedded/5.4 2016q2/arm-none-eabi/lib/fpu/libc.a(lib_a-cxa_atexit.o)
                              C:/Program Files (x86)/GNU Tools ARM Embedded/5.4 2016q2/arm-none-eabi/lib/fpu/libc.a(lib_a-aeabi_atexit.o) (__cxa_atexit)
C:/Program Files (x86)/GNU Tools ARM Embedded/5.4 2016q2/arm-none-eabi/lib/fpu/libc.a(lib_a-init.o)
                              armc-cstartup.o (__libc_init_array)
C:/Program Files (x86)/GNU Tools ARM Embedded/5.4 2016q2/arm-none-eabi/lib/fpu/libc.a(lib_a-isdigit.o)
                              iec_commands.o (isdigit)
C:/Program Files (x86)/GNU Tools ARM Embedded/5.4 2016q2/arm-none-eabi/lib/fpu/libc.a(lib_a-isspace.o)
                              iec_commands.o (isspace)
C:/Program Files (x86)/GNU Tools ARM Embedded/5.4 2016q2/arm-none-eabi/lib/fpu/libc.a(lib_a-malloc.o)
                              armc-cppstubs.o (malloc)
C:/Program Files (x86)/GNU Tools ARM Embedded/5.4 2016q2/arm-none-eabi/lib/fpu/libc.a(lib_a-mallocr.o)
                              C:/Program Files (x86)/GNU Tools ARM Embedded/5.4 2016q2/arm-none-eabi/lib/fpu/libc.a(lib_a-malloc.o) (_malloc_r)
C:/Program Files (x86)/GNU Tools ARM Embedded/5.4 2016q2/arm-none-eabi/lib/fpu/libc.a(lib_a-memcmp.o)
                              DiskImage.o (memcmp)
C:/Program Files (x86)/GNU Tools ARM Embedded/5.4 2016q2/arm-none-eabi/lib/fpu/libc.a(lib_a-memcpy-stub.o)
                              rpi-mailbox-interface.o (memcpy)
C:/Program Files (x86)/GNU Tools ARM Embedded/5.4 2016q2/arm-none-eabi/lib/fpu/libc.a(lib_a-memmove.o)
                              FileBrowser.o (memmove)
C:/Program Files (x86)/GNU Tools ARM Embedded/5.4 2016q2/arm-none-eabi/lib/fpu/libc.a(lib_a-memset.o)
                              keyboard.o (memset)
C:/Program Files (x86)/GNU Tools ARM Embedded/5.4 2016q2/arm-none-eabi/lib/fpu/libc.a(lib_a-mlock.o)
                              C:/Program Files (x86)/GNU Tools ARM Embedded/5.4 2016q2/arm-none-eabi/lib/fpu/libc.a(lib_a-mallocr.o) (__malloc_lock)
C:/Program Files (x86)/GNU Tools ARM Embedded/5.4 2016q2/arm-none-eabi/lib/fpu/libc.a(lib_a-printf.o)
                              main.o (printf)
C:/Program Files (x86)/GNU Tools ARM Embedded/5.4 2016q2/arm-none-eabi/lib/fpu/libc.a(lib_a-rand.o)
                              drive.o (srand)
C:/Program Files (x86)/GNU Tools ARM Embedded/5.4 2016q2/arm-none-eabi/lib/fpu/libc.a(lib_a-realloc.o)
                              Screen.o (realloc)
C:/Program Files (x86)/GNU Tools ARM Embedded/5.4 2016q2/arm-none-eabi/lib/fpu/libc.a(lib_a-reallocr.o)
                              C:/Program Files (x86)/GNU Tools ARM Embedded/5.4 2016q2/arm-none-eabi/lib/fpu/libc.a(lib_a-realloc.o) (_realloc_r)
C:/Program Files (x86)/GNU Tools ARM Embedded/5.4 2016q2/arm-none-eabi/lib/fpu/libc.a(lib_a-reent.o)
                              armc-cstubs.o (errno)
C:/Program Files (x86)/GNU Tools ARM Embedded/5.4 2016q2/arm-none-eabi/lib/fpu/libc.a(lib_a-sbrkr.o)
                              C:/Program Files (x86)/GNU Tools ARM Embedded/5.4 2016q2/arm-none-eabi/lib/fpu/libc.a(lib_a-mallocr.o) (_sbrk_r)
C:/Program Files (x86)/GNU Tools ARM Embedded/5.4 2016q2/arm-none-eabi/lib/fpu/libc.a(lib_a-snprintf.o)
                              main.o (snprintf)
C:/Program Files (x86)/GNU Tools ARM Embedded/5.4 2016q2/arm-none-eabi/lib/fpu/libc.a(lib_a-sprintf.o)
                              DiskImage.o (sprintf)
C:/Program Files (x86)/GNU Tools ARM Embedded/5.4 2016q2/arm-none-eabi/lib/fpu/libc.a(lib_a-strcasecmp.o)
                              iec_commands.o (strcasecmp)
C:/Program Files (x86)/GNU Tools ARM Embedded/5.4 2016q2/arm-none-eabi/lib/fpu/libc.a(lib_a-strcat.o)
                              iec_commands.o (strcat)
C:/Program Files (x86)/GNU Tools ARM Embedded/5.4 2016q2/arm-none-eabi/lib/fpu/libc.a(lib_a-strchr.o)
                              iec_commands.o (strchr)
C:/Program Files (x86)/GNU Tools ARM Embedded/5.4 2016q2/arm-none-eabi/lib/fpu/libc.a(lib_a-strcmp.o)
                              FileBrowser.o (strcmp)
C:/Program Files (x86)/GNU Tools ARM Embedded/5.4 2016q2/arm-none-eabi/lib/fpu/libc.a(lib_a-strcpy.o)
                              DiskImage.o (strcpy)
C:/Program Files (x86)/GNU Tools ARM Embedded/5.4 2016q2/arm-none-eabi/lib/fpu/libc.a(lib_a-strlen-stub.o)
                              iec_commands.o (strlen)
C:/Program Files (x86)/GNU Tools ARM Embedded/5.4 2016q2/arm-none-eabi/lib/fpu/libc.a(lib_a-strncasecmp.o)
                              FileBrowser.o (strncasecmp)
C:/Program Files (x86)/GNU Tools ARM Embedded/5.4 2016q2/arm-none-eabi/lib/fpu/libc.a(lib_a-strncpy.o)
                              main.o (strncpy)
C:/Program Files (x86)/GNU Tools ARM Embedded/5.4 2016q2/arm-none-eabi/lib/fpu/libc.a(lib_a-strrchr.o)
                              DiskImage.o (strrchr)
C:/Program Files (x86)/GNU Tools ARM Embedded/5.4 2016q2/arm-none-eabi/lib/fpu/libc.a(lib_a-strstr.o)
                              iec_commands.o (strstr)
C:/Program Files (x86)/GNU Tools ARM Embedded/5.4 2016q2/arm-none-eabi/lib/fpu/libc.a(lib_a-svfprintf.o)
                              C:/Program Files (x86)/GNU Tools ARM Embedded/5.4 2016q2/arm-none-eabi/lib/fpu/libc.a(lib_a-snprintf.o) (_svfprintf_r)
C:/Program Files (x86)/GNU Tools ARM Embedded/5.4 2016q2/arm-none-eabi/lib/fpu/libc.a(lib_a-toupper.o)
                              DiskImage.o (toupper)
C:/Program Files (x86)/GNU Tools ARM Embedded/5.4 2016q2/arm-none-eabi/lib/fpu/libc.a(lib_a-vfprintf.o)
                              C:/Program Files (x86)/GNU Tools ARM Embedded/5.4 2016q2/arm-none-eabi/lib/fpu/libc.a(lib_a-printf.o) (_vfprintf_r)
C:/Program Files (x86)/GNU Tools ARM Embedded/5.4 2016q2/arm-none-eabi/lib/fpu/libc.a(lib_a-vprintf.o)
                              main.o (vprintf)
C:/Program Files (x86)/GNU Tools ARM Embedded/5.4 2016q2/arm-none-eabi/lib/fpu/libc.a(lib_a-wsetup.o)
                              C:/Program Files (x86)/GNU Tools ARM Embedded/5.4 2016q2/arm-none-eabi/lib/fpu/libc.a(lib_a-vfprintf.o) (__swsetup_r)
C:/Program Files (x86)/GNU Tools ARM Embedded/5.4 2016q2/arm-none-eabi/lib/fpu/libc.a(lib_a-__atexit.o)
                              C:/Program Files (x86)/GNU Tools ARM Embedded/5.4 2016q2/arm-none-eabi/lib/fpu/libc.a(lib_a-cxa_atexit.o) (__register_exitproc)
C:/Program Files (x86)/GNU Tools ARM Embedded/5.4 2016q2/arm-none-eabi/lib/fpu/libc.a(lib_a-ctype_.o)
                              C:/Program Files (x86)/GNU Tools ARM Embedded/5.4 2016q2/arm-none-eabi/lib/fpu/libc.a(lib_a-isdigit.o) (__ctype_ptr__)
C:/Program Files (x86)/GNU Tools ARM Embedded/5.4 2016q2/arm-none-eabi/lib/fpu/libc.a(lib_a-dtoa.o)
                              C:/Program Files (x86)/GNU Tools ARM Embedded/5.4 2016q2/arm-none-eabi/lib/fpu/libc.a(lib_a-svfprintf.o) (_dtoa_r)
C:/Program Files (x86)/GNU Tools ARM Embedded/5.4 2016q2/arm-none-eabi/lib/fpu/libc.a(lib_a-fflush.o)
                              C:/Program Files (x86)/GNU Tools ARM Embedded/5.4 2016q2/arm-none-eabi/lib/fpu/libc.a(lib_a-vfprintf.o) (_fflush_r)
C:/Program Files (x86)/GNU Tools ARM Embedded/5.4 2016q2/arm-none-eabi/lib/fpu/libc.a(lib_a-findfp.o)
                              C:/Program Files (x86)/GNU Tools ARM Embedded/5.4 2016q2/arm-none-eabi/lib/fpu/libc.a(lib_a-vfprintf.o) (__sinit)
C:/Program Files (x86)/GNU Tools ARM Embedded/5.4 2016q2/arm-none-eabi/lib/fpu/libc.a(lib_a-freer.o)
                              C:/Program Files (x86)/GNU Tools ARM Embedded/5.4 2016q2/arm-none-eabi/lib/fpu/libc.a(lib_a-malloc.o) (_free_r)
C:/Program Files (x86)/GNU Tools ARM Embedded/5.4 2016q2/arm-none-eabi/lib/fpu/libc.a(lib_a-fwalk.o)
                              C:/Program Files (x86)/GNU Tools ARM Embedded/5.4 2016q2/arm-none-eabi/lib/fpu/libc.a(lib_a-findfp.o) (_fwalk)
C:/Program Files (x86)/GNU Tools ARM Embedded/5.4 2016q2/arm-none-eabi/lib/fpu/libc.a(lib_a-impure.o)
                              C:/Program Files (x86)/GNU Tools ARM Embedded/5.4 2016q2/arm-none-eabi/lib/fpu/libc.a(lib_a-__atexit.o) (_global_impure_ptr)
C:/Program Files (x86)/GNU Tools ARM Embedded/5.4 2016q2/arm-none-eabi/lib/fpu/libc.a(lib_a-locale.o)
                              C:/Program Files (x86)/GNU Tools ARM Embedded/5.4 2016q2/arm-none-eabi/lib/fpu/libc.a(lib_a-svfprintf.o) (_localeconv_r)
C:/Program Files (x86)/GNU Tools ARM Embedded/5.4 2016q2/arm-none-eabi/lib/fpu/libc.a(lib_a-makebuf.o)
                              C:/Program Files (x86)/GNU Tools ARM Embedded/5.4 2016q2/arm-none-eabi/lib/fpu/libc.a(lib_a-wsetup.o) (__smakebuf_r)
C:/Program Files (x86)/GNU Tools ARM Embedded/5.4 2016q2/arm-none-eabi/lib/fpu/libc.a(lib_a-memchr-stub.o)
                              C:/Program Files (x86)/GNU Tools ARM Embedded/5.4 2016q2/arm-none-eabi/lib/fpu/libc.a(lib_a-strstr.o) (memchr)
C:/Program Files (x86)/GNU Tools ARM Embedded/5.4 2016q2/arm-none-eabi/lib/fpu/libc.a(lib_a-mprec.o)
                              C:/Program Files (x86)/GNU Tools ARM Embedded/5.4 2016q2/arm-none-eabi/lib/fpu/libc.a(lib_a-dtoa.o) (_Balloc)
C:/Program Files (x86)/GNU Tools ARM Embedded/5.4 2016q2/arm-none-eabi/lib/fpu/libc.a(lib_a-stdio.o)
                              C:/Program Files (x86)/GNU Tools ARM Embedded/5.4 2016q2/arm-none-eabi/lib/fpu/libc.a(lib_a-findfp.o) (__sread)
C:/Program Files (x86)/GNU Tools ARM Embedded/5.4 2016q2/arm-none-eabi/lib/fpu/libc.a(lib_a-svfiprintf.o)
                              C:/Program Files (x86)/GNU Tools ARM Embedded/5.4 2016q2/arm-none-eabi/lib/fpu/libc.a(lib_a-svfprintf.o) (__ssprint_r)
C:/Program Files (x86)/GNU Tools ARM Embedded/5.4 2016q2/arm-none-eabi/lib/fpu/libc.a(lib_a-vfiprintf.o)
                              C:/Program Files (x86)/GNU Tools ARM Embedded/5.4 2016q2/arm-none-eabi/lib/fpu/libc.a(lib_a-vfprintf.o) (__sprint_r)
C:/Program Files (x86)/GNU Tools ARM Embedded/5.4 2016q2/arm-none-eabi/lib/fpu/libc.a(lib_a-writer.o)
                              C:/Program Files (x86)/GNU Tools ARM Embedded/5.4 2016q2/arm-none-eabi/lib/fpu/libc.a(lib_a-stdio.o) (_write_r)
C:/Program Files (x86)/GNU Tools ARM Embedded/5.4 2016q2/arm-none-eabi/lib/fpu/libc.a(lib_a-callocr.o)
                              C:/Program Files (x86)/GNU Tools ARM Embedded/5.4 2016q2/arm-none-eabi/lib/fpu/libc.a(lib_a-mprec.o) (_calloc_r)
C:/Program Files (x86)/GNU Tools ARM Embedded/5.4 2016q2/arm-none-eabi/lib/fpu/libc.a(lib_a-closer.o)
                              C:/Program Files (x86)/GNU Tools ARM Embedded/5.4 2016q2/arm-none-eabi/lib/fpu/libc.a(lib_a-stdio.o) (_close_r)
C:/Program Files (x86)/GNU Tools ARM Embedded/5.4 2016q2/arm-none-eabi/lib/fpu/libc.a(lib_a-fclose.o)
                              C:/Program Files (x86)/GNU Tools ARM Embedded/5.4 2016q2/arm-none-eabi/lib/fpu/libc.a(lib_a-findfp.o) (_fclose_r)
C:/Program Files (x86)/GNU Tools ARM Embedded/5.4 2016q2/arm-none-eabi/lib/fpu/libc.a(lib_a-fputwc.o)
                              C:/Program Files (x86)/GNU Tools ARM Embedded/5.4 2016q2/arm-none-eabi/lib/fpu/libc.a(lib_a-vfiprintf.o) (_fputwc_r)
C:/Program Files (x86)/GNU Tools ARM Embedded/5.4 2016q2/arm-none-eabi/lib/fpu/libc.a(lib_a-fstatr.o)
                              C:/Program Files (x86)/GNU Tools ARM Embedded/5.4 2016q2/arm-none-eabi/lib/fpu/libc.a(lib_a-makebuf.o) (_fstat_r)
C:/Program Files (x86)/GNU Tools ARM Embedded/5.4 2016q2/arm-none-eabi/lib/fpu/libc.a(lib_a-fvwrite.o)
                              C:/Program Files (x86)/GNU Tools ARM Embedded/5.4 2016q2/arm-none-eabi/lib/fpu/libc.a(lib_a-vfiprintf.o) (__sfvwrite_r)
C:/Program Files (x86)/GNU Tools ARM Embedded/5.4 2016q2/arm-none-eabi/lib/fpu/libc.a(lib_a-isattyr.o)
                              C:/Program Files (x86)/GNU Tools ARM Embedded/5.4 2016q2/arm-none-eabi/lib/fpu/libc.a(lib_a-makebuf.o) (_isatty_r)
C:/Program Files (x86)/GNU Tools ARM Embedded/5.4 2016q2/arm-none-eabi/lib/fpu/libc.a(lib_a-lseekr.o)
                              C:/Program Files (x86)/GNU Tools ARM Embedded/5.4 2016q2/arm-none-eabi/lib/fpu/libc.a(lib_a-stdio.o) (_lseek_r)
C:/Program Files (x86)/GNU Tools ARM Embedded/5.4 2016q2/arm-none-eabi/lib/fpu/libc.a(lib_a-readr.o)
                              C:/Program Files (x86)/GNU Tools ARM Embedded/5.4 2016q2/arm-none-eabi/lib/fpu/libc.a(lib_a-stdio.o) (_read_r)
C:/Program Files (x86)/GNU Tools ARM Embedded/5.4 2016q2/arm-none-eabi/lib/fpu/libc.a(lib_a-wbuf.o)
                              C:/Program Files (x86)/GNU Tools ARM Embedded/5.4 2016q2/arm-none-eabi/lib/fpu/libc.a(lib_a-fputwc.o) (__swbuf_r)
C:/Program Files (x86)/GNU Tools ARM Embedded/5.4 2016q2/arm-none-eabi/lib/fpu/libc.a(lib_a-wcrtomb.o)
                              C:/Program Files (x86)/GNU Tools ARM Embedded/5.4 2016q2/arm-none-eabi/lib/fpu/libc.a(lib_a-fputwc.o) (_wcrtomb_r)
C:/Program Files (x86)/GNU Tools ARM Embedded/5.4 2016q2/arm-none-eabi/lib/fpu/libc.a(lib_a-wctomb_r.o)
                              C:/Program Files (x86)/GNU Tools ARM Embedded/5.4 2016q2/arm-none-eabi/lib/fpu/libc.a(lib_a-wcrtomb.o) (__wctomb)
C:/Program Files (x86)/GNU Tools ARM Embedded/5.4 2016q2/lib/gcc/arm-none-eabi/5.4.1/fpu/libgcc.a(_udivsi3.o)
                              C:/Program Files (x86)/GNU Tools ARM Embedded/5.4 2016q2/arm-none-eabi/lib/fpu/libc.a(lib_a-dtoa.o) (__aeabi_uidiv)
C:/Program Files (x86)/GNU Tools ARM Embedded/5.4 2016q2/lib/gcc/arm-none-eabi/5.4.1/fpu/libgcc.a(_divsi3.o)
                              C:/Program Files (x86)/GNU Tools ARM Embedded/5.4 2016q2/arm-none-eabi/lib/fpu/libc.a(lib_a-fvwrite.o) (__aeabi_idiv)
C:/Program Files (x86)/GNU Tools ARM Embedded/5.4 2016q2/lib/gcc/arm-none-eabi/5.4.1/fpu/libgcc.a(_dvmd_tls.o)
                              C:/Program Files (x86)/GNU Tools ARM Embedded/5.4 2016q2/lib/gcc/arm-none-eabi/5.4.1/fpu/libgcc.a(_udivsi3.o) (__aeabi_idiv0)
C:/Program Files (x86)/GNU Tools ARM Embedded/5.4 2016q2/lib/gcc/arm-none-eabi/5.4.1/fpu/libgcc.a(_aeabi_uldivmod.o)
                              ff.o (__aeabi_uldivmod)
C:/Program Files (x86)/GNU Tools ARM Embedded/5.4 2016q2/lib/gcc/arm-none-eabi/5.4.1/fpu/libgcc.a(_udivmoddi4.o)
                              C:/Program Files (x86)/GNU Tools ARM Embedded/5.4 2016q2/lib/gcc/arm-none-eabi/5.4.1/fpu/libgcc.a(_aeabi_uldivmod.o) (__udivmoddi4)
C:/Program Files (x86)/GNU Tools ARM Embedded/5.4 2016q2/lib/gcc/arm-none-eabi/5.4.1/fpu/libgcc.a(_clzdi2.o)
                              C:/Program Files (x86)/GNU Tools ARM Embedded/5.4 2016q2/lib/gcc/arm-none-eabi/5.4.1/fpu/libgcc.a(_udivmoddi4.o) (__clzdi2)
C:/Program Files (x86)/GNU Tools ARM Embedded/5.4 2016q2/lib/gcc/arm-none-eabi/5.4.1/fpu/libgcc.a(_clzsi2.o)
                              C:/Program Files (x86)/GNU Tools ARM Embedded/5.4 2016q2/lib/gcc/arm-none-eabi/5.4.1/fpu/libgcc.a(_clzdi2.o) (__clzsi2)
uspi/lib/libuspi.a(uspilibrary.o)
                              main.o (USPiInitialize)
uspi/lib/libuspi.a(dwhcidevice.o)
                              uspi/lib/libuspi.a(uspilibrary.o) (DWHCIDevice)
uspi/lib/libuspi.a(dwhciregister.o)
                              uspi/lib/libuspi.a(dwhcidevice.o) (DWHCIRegister)
uspi/lib/libuspi.a(dwhcixferstagedata.o)
                              uspi/lib/libuspi.a(dwhcidevice.o) (DWHCITransferStageData)
uspi/lib/libuspi.a(usbdevice.o)
                              uspi/lib/libuspi.a(dwhcixferstagedata.o) (USBDeviceGetAddress)
uspi/lib/libuspi.a(usbendpoint.o)
                              uspi/lib/libuspi.a(usbdevice.o) (USBEndpoint)
uspi/lib/libuspi.a(usbrequest.o)
                              uspi/lib/libuspi.a(dwhcidevice.o) (USBRequest)
uspi/lib/libuspi.a(devicenameservice.o)
                              uspi/lib/libuspi.a(uspilibrary.o) (DeviceNameService)
uspi/lib/libuspi.a(macaddress.o)
                              uspi/lib/libuspi.a(uspilibrary.o) (MACAddressCopyTo)
uspi/lib/libuspi.a(smsc951x.o)
                              uspi/lib/libuspi.a(uspilibrary.o) (SMSC951xDeviceGetMACAddress)
uspi/lib/libuspi.a(lan7800.o)
                              uspi/lib/libuspi.a(uspilibrary.o) (LAN7800DeviceGetMACAddress)
uspi/lib/libuspi.a(string.o)  uspi/lib/libuspi.a(uspilibrary.o) (String)
uspi/lib/libuspi.a(util.o)    uspi/lib/libuspi.a(macaddress.o) (uspi_memset)
uspi/lib/libuspi.a(usbmassdevice.o)
                              uspi/lib/libuspi.a(uspilibrary.o) (USBBulkOnlyMassStorageDeviceSeek)
uspi/lib/libuspi.a(dwhciframeschednper.o)
                              uspi/lib/libuspi.a(dwhcixferstagedata.o) (DWHCIFrameSchedulerNonPeriodic)
uspi/lib/libuspi.a(dwhciframeschedper.o)
                              uspi/lib/libuspi.a(dwhcixferstagedata.o) (DWHCIFrameSchedulerPeriodic)
uspi/lib/libuspi.a(usbkeyboard.o)
                              uspi/lib/libuspi.a(uspilibrary.o) (USBKeyboardDeviceRegisterKeyPressedHandler)
uspi/lib/libuspi.a(dwhcirootport.o)
                              uspi/lib/libuspi.a(dwhcidevice.o) (DWHCIRootPort)
uspi/lib/libuspi.a(usbmouse.o)
                              uspi/lib/libuspi.a(uspilibrary.o) (USBMouseDeviceRegisterStatusHandler)
uspi/lib/libuspi.a(dwhciframeschednsplit.o)
                              uspi/lib/libuspi.a(dwhcixferstagedata.o) (DWHCIFrameSchedulerNoSplit)
uspi/lib/libuspi.a(usbgamepad.o)
                              uspi/lib/libuspi.a(uspilibrary.o) (USBGamePadDeviceRegisterStatusHandler)
uspi/lib/libuspi.a(synchronize.o)
                              uspi/lib/libuspi.a(dwhcidevice.o) (uspi_EnterCritical)
uspi/lib/libuspi.a(usbstring.o)
                              uspi/lib/libuspi.a(usbdevice.o) (USBString)
uspi/lib/libuspi.a(usbmidi.o)
                              uspi/lib/libuspi.a(uspilibrary.o) (USBMIDIDeviceRegisterPacketHandler)
uspi/lib/libuspi.a(usbconfigparser.o)
                              uspi/lib/libuspi.a(usbdevice.o) (USBConfigurationParser)
uspi/lib/libuspi.a(usbdevicefactory.o)
                              uspi/lib/libuspi.a(dwhcirootport.o) (USBDeviceFactoryGetDevice)
uspi/lib/libuspi.a(usbstandardhub.o)
                              uspi/lib/libuspi.a(usbdevicefactory.o) (USBStandardHub)
uspi/lib/libuspi.a(keymap.o)  uspi/lib/libuspi.a(usbkeyboard.o) (KeyMap)

Allocating common symbols
Common symbol       size              file

PageTable2          0x800             cache.o
errno               0x4               C:/Program Files (x86)/GNU Tools ARM Embedded/5.4 2016q2/arm-none-eabi/lib/fpu/libc.a(lib_a-reent.o)
PageTable           0x4000            cache.o

Discarded input sections

 .group         0x00000000        0x8 main.o
 .group         0x00000000        0x8 main.o
 .group         0x00000000        0x8 main.o
 .group         0x00000000        0x8 main.o
 .group         0x00000000        0x8 main.o
 .group         0x00000000        0x8 main.o
 .group         0x00000000        0x8 main.o
 .group         0x00000000        0xc keyboard.o
 .group         0x00000000        0xc keyboard.o
 .group         0x00000000        0x8 keyboard.o
 .group         0x00000000        0x8 keyboard.o
 .bss._ZN9SingletonI8KeyboardE11m_pInstanceE
                0x00000000        0x4 keyboard.o
 .group         0x00000000        0x8 iec_commands.o
 .group         0x00000000        0x8 m6502.o
 .group         0x00000000        0x8 m6502.o
 .group         0x00000000        0x8 m6502.o
 .group         0x00000000        0x8 m6502.o
 .group         0x00000000        0x8 m6502.o
 .group         0x00000000        0x8 m6502.o
 .group         0x00000000        0x8 m6502.o
 .group         0x00000000        0x8 m6502.o
 .group         0x00000000        0x8 m6502.o
 .group         0x00000000        0x8 m6502.o
 .group         0x00000000        0x8 m6502.o
 .group         0x00000000        0x8 m6502.o
 .group         0x00000000        0x8 m6502.o
 .group         0x00000000        0x8 m6502.o
 .group         0x00000000        0x8 m6502.o
 .group         0x00000000        0x8 m6502.o
 .group         0x00000000        0x8 m6502.o
 .group         0x00000000        0x8 m6502.o
 .group         0x00000000        0x8 m6502.o
 .group         0x00000000        0x8 m6502.o
 .group         0x00000000        0x8 m6502.o
 .group         0x00000000        0x8 m6502.o
 .group         0x00000000        0x8 m6502.o
 .group         0x00000000        0x8 m6502.o
 .group         0x00000000        0x8 m6502.o
 .group         0x00000000        0x8 m6502.o
 .group         0x00000000        0x8 m6502.o
 .group         0x00000000        0x8 m6502.o
 .group         0x00000000        0x8 m6502.o
 .group         0x00000000        0x8 m6502.o
 .group         0x00000000        0x8 m6502.o
 .group         0x00000000        0x8 m6502.o
 .group         0x00000000        0x8 m6502.o
 .group         0x00000000        0x8 m6502.o
 .group         0x00000000        0x8 m6502.o
 .group         0x00000000        0x8 m6502.o
 .group         0x00000000        0x8 m6502.o
 .group         0x00000000        0x8 m6502.o
 .group         0x00000000        0x8 m6502.o
 .group         0x00000000        0x8 m6502.o
 .group         0x00000000        0x8 m6502.o
 .group         0x00000000        0x8 m6502.o
 .group         0x00000000        0x8 m6502.o
 .group         0x00000000        0x8 m6502.o
 .group         0x00000000        0x8 m6502.o
 .group         0x00000000        0x8 m6502.o
 .group         0x00000000        0x8 m6502.o
 .group         0x00000000        0x8 m6502.o
 .group         0x00000000        0x8 m6502.o
 .group         0x00000000        0x8 m6502.o
 .group         0x00000000        0x8 m6502.o
 .group         0x00000000        0x8 m6502.o
 .group         0x00000000        0x8 m6502.o
 .group         0x00000000        0x8 m6502.o
 .group         0x00000000        0x8 m6502.o
 .group         0x00000000        0x8 m6502.o
 .group         0x00000000        0x8 m6502.o
 .group         0x00000000        0x8 m6502.o
 .group         0x00000000        0x8 m6502.o
 .group         0x00000000        0x8 m6502.o
 .group         0x00000000        0x8 m6502.o
 .group         0x00000000        0x8 m6502.o
 .group         0x00000000        0x8 m6502.o
 .group         0x00000000        0x8 m6502.o
 .group         0x00000000        0x8 m6502.o
 .group         0x00000000        0x8 m6502.o
 .group         0x00000000        0x8 m6502.o
 .group         0x00000000        0x8 m6502.o
 .group         0x00000000        0x8 m6502.o
 .group         0x00000000        0x8 m6502.o
 .group         0x00000000        0x8 m6502.o
 .group         0x00000000        0x8 m6502.o
 .group         0x00000000        0x8 m6502.o
 .group         0x00000000        0x8 m6502.o
 .group         0x00000000        0x8 m6502.o
 .group         0x00000000        0x8 m6502.o
 .group         0x00000000        0x8 m6502.o
 .group         0x00000000        0x8 m6502.o
 .group         0x00000000        0x8 m6502.o
 .group         0x00000000        0x8 m6502.o
 .group         0x00000000        0x8 m6502.o
 .group         0x00000000        0x8 m6502.o
 .group         0x00000000        0x8 m6502.o
 .group         0x00000000        0x8 m6502.o
 .group         0x00000000        0x8 m6502.o
 .group         0x00000000        0x8 m6502.o
 .group         0x00000000        0x8 m6502.o
 .group         0x00000000        0x8 m6502.o
 .group         0x00000000        0x8 m6502.o
 .group         0x00000000        0x8 m6502.o
 .group         0x00000000        0x8 m6502.o
 .group         0x00000000        0x8 m6502.o
 .group         0x00000000        0x8 m6502.o
 .group         0x00000000        0x8 m6502.o
 .group         0x00000000        0x8 m6502.o
 .group         0x00000000        0x8 m6502.o
 .group         0x00000000        0x8 m6502.o
 .group         0x00000000        0x8 m6502.o
 .group         0x00000000        0x8 m6502.o
 .group         0x00000000        0x8 m6502.o
 .group         0x00000000        0x8 m6502.o
 .group         0x00000000        0x8 m6502.o
 .group         0x00000000        0x8 m6502.o
 .group         0x00000000        0x8 m6502.o
 .group         0x00000000        0x8 m6502.o
 .group         0x00000000        0x8 m6502.o
 .group         0x00000000        0x8 m6502.o
 .group         0x00000000        0x8 m6502.o
 .group         0x00000000        0x8 m6502.o
 .group         0x00000000        0x8 m6502.o
 .group         0x00000000        0x8 m6502.o
 .group         0x00000000        0x8 m6502.o
 .group         0x00000000        0x8 m6502.o
 .group         0x00000000        0x8 m6502.o
 .group         0x00000000        0x8 m6502.o
 .group         0x00000000        0x8 m6502.o
 .group         0x00000000        0x8 m6502.o
 .group         0x00000000        0x8 m6502.o
 .group         0x00000000        0x8 m6502.o
 .group         0x00000000        0x8 m6502.o
 .group         0x00000000        0x8 m6502.o
 .group         0x00000000        0x8 m6502.o
 .group         0x00000000        0x8 m6502.o
 .group         0x00000000        0x8 m6502.o
 .group         0x00000000        0x8 m6502.o
 .group         0x00000000        0x8 m6502.o
 .group         0x00000000        0x8 m6502.o
 .group         0x00000000        0x8 m6502.o
 .group         0x00000000        0x8 m6502.o
 .group         0x00000000        0x8 m6502.o
 .group         0x00000000        0x8 m6502.o
 .group         0x00000000        0x8 m6502.o
 .group         0x00000000        0x8 m6502.o
 .group         0x00000000        0x8 m6502.o
 .group         0x00000000        0x8 m6502.o
 .group         0x00000000        0x8 m6502.o
 .group         0x00000000        0x8 m6502.o
 .group         0x00000000        0x8 m6502.o
 .group         0x00000000        0x8 m6502.o
 .group         0x00000000        0x8 m6502.o
 .group         0x00000000        0x8 m6502.o
 .group         0x00000000        0x8 m6502.o
 .group         0x00000000        0x8 m6502.o
 .group         0x00000000        0x8 m6502.o
 .group         0x00000000        0x8 m6502.o
 .group         0x00000000        0x8 m6502.o
 .group         0x00000000        0x8 m6502.o
 .group         0x00000000        0x8 m6502.o
 .group         0x00000000        0x8 m6502.o
 .group         0x00000000        0x8 m6502.o
 .group         0x00000000        0x8 m6502.o
 .group         0x00000000        0x8 m6502.o
 .group         0x00000000        0x8 m6502.o
 .group         0x00000000        0x8 m6502.o
 .group         0x00000000        0x8 m6502.o
 .group         0x00000000        0x8 m6502.o
 .group         0x00000000        0x8 m6502.o
 .group         0x00000000        0x8 m6502.o
 .group         0x00000000        0x8 m6502.o
 .group         0x00000000        0x8 m6502.o
 .group         0x00000000        0x8 m6502.o
 .group         0x00000000        0x8 m6502.o
 .group         0x00000000        0x8 m6502.o
 .group         0x00000000        0x8 m6502.o
 .group         0x00000000        0x8 m6502.o
 .group         0x00000000        0x8 m6502.o
 .group         0x00000000        0x8 m6502.o
 .group         0x00000000        0x8 m6502.o
 .group         0x00000000        0x8 m6502.o
 .group         0x00000000        0x8 m6502.o
 .group         0x00000000        0x8 m6502.o
 .group         0x00000000        0x8 m6502.o
 .group         0x00000000        0x8 m6502.o
 .group         0x00000000        0x8 m6502.o
 .group         0x00000000        0x8 m6502.o
 .group         0x00000000        0x8 m6502.o
 .group         0x00000000        0x8 m6502.o
 .group         0x00000000        0x8 m6502.o
 .group         0x00000000        0x8 m6502.o
 .group         0x00000000        0x8 m6502.o
 .group         0x00000000        0x8 m6502.o
 .group         0x00000000        0x8 m6502.o
 .group         0x00000000        0x8 m6502.o
 .group         0x00000000        0x8 m6502.o
 .group         0x00000000        0x8 m6502.o
 .group         0x00000000        0x8 m6502.o
 .group         0x00000000        0x8 m6502.o
 .group         0x00000000        0x8 m6502.o
 .group         0x00000000        0x8 m6502.o
 .group         0x00000000        0x8 m6502.o
 .group         0x00000000        0x8 m6502.o
 .group         0x00000000        0x8 m6502.o
 .group         0x00000000        0x8 m6502.o
 .group         0x00000000        0x8 m6502.o
 .group         0x00000000        0x8 m6502.o
 .group         0x00000000        0x8 m6502.o
 .group         0x00000000        0x8 m6502.o
 .group         0x00000000        0x8 m6502.o
 .group         0x00000000        0x8 m6502.o
 .group         0x00000000        0x8 m6502.o
 .group         0x00000000        0x8 m6502.o
 .group         0x00000000        0x8 m6502.o
 .group         0x00000000        0x8 m6502.o
 .group         0x00000000        0x8 m6502.o
 .group         0x00000000        0x8 m6502.o
 .group         0x00000000        0x8 m6502.o
 .group         0x00000000        0x8 m6502.o
 .group         0x00000000        0x8 m6502.o
 .group         0x00000000        0x8 m6502.o
 .group         0x00000000        0x8 m6502.o
 .group         0x00000000        0x8 m6502.o
 .group         0x00000000        0x8 m6502.o
 .group         0x00000000        0x8 m6502.o
 .group         0x00000000        0x8 m6502.o
 .group         0x00000000        0x8 m6502.o
 .group         0x00000000        0x8 FileBrowser.o
 .group         0x00000000        0x8 FileBrowser.o
 .group         0x00000000        0x8 FileBrowser.o
 .group         0x00000000        0x8 FileBrowser.o
 .group         0x00000000        0x8 FileBrowser.o
 .group         0x00000000        0x8 FileBrowser.o
 .group         0x00000000        0x8 FileBrowser.o
 .group         0x00000000        0x8 FileBrowser.o
 .group         0x00000000        0x8 FileBrowser.o
 .group         0x00000000        0x8 FileBrowser.o
 .bss._ZN9SingletonI13InputMappingsE11m_pInstanceE
                0x00000000        0x4 FileBrowser.o
 .bss._ZN9SingletonI8KeyboardE11m_pInstanceE
                0x00000000        0x4 FileBrowser.o
 .group         0x00000000        0x8 DiskCaddy.o
 .group         0x00000000        0xc InputMappings.o
 .group         0x00000000        0xc InputMappings.o
 .group         0x00000000        0x8 InputMappings.o
 .group         0x00000000        0x8 InputMappings.o
 .bss._ZN9SingletonI8KeyboardE11m_pInstanceE
                0x00000000        0x4 InputMappings.o

Memory Configuration

Name             Origin             Length             Attributes
*default*        0x00000000         0xffffffff

Linker script and memory map

                [!provide]                PROVIDE (__executable_start, 0x1f00000)
                0x01f00000                . = 0x1f00000

.interp
 *(.interp)

.note.gnu.build-id
 *(.note.gnu.build-id)

.hash
 *(.hash)

.gnu.hash
 *(.gnu.hash)

.dynsym
 *(.dynsym)

.dynstr
 *(.dynstr)

.gnu.version
 *(.gnu.version)

.gnu.version_d
 *(.gnu.version_d)

.gnu.version_r
 *(.gnu.version_r)

.rel.init
 *(.rel.init)

.rela.init
 *(.rela.init)

.rel.text
 *(.rel.text .rel.text.* .rel.gnu.linkonce.t.*)

.rela.text
 *(.rela.text .rela.text.* .rela.gnu.linkonce.t.*)

.rel.fini
 *(.rel.fini)

.rela.fini
 *(.rela.fini)

.rel.rodata
 *(.rel.rodata .rel.rodata.* .rel.gnu.linkonce.r.*)

.rela.rodata
 *(.rela.rodata .rela.rodata.* .rela.gnu.linkonce.r.*)

.rel.data.rel.ro
 *(.rel.data.rel.ro* .rel.gnu.linkonce.d.rel.ro.*)

.rela.data.rel.ro
 *(.rela.data.rel.ro* .rela.gnu.linkonce.d.rel.ro.*)

.rel.data
 *(.rel.data .rel.data.* .rel.gnu.linkonce.d.*)

.rela.data
 *(.rela.data .rela.data.* .rela.gnu.linkonce.d.*)

.rel.tdata
 *(.rel.tdata .rel.tdata.* .rel.gnu.linkonce.td.*)

.rela.tdata
 *(.rela.tdata .rela.tdata.* .rela.gnu.linkonce.td.*)

.rel.tbss
 *(.rel.tbss .rel.tbss.* .rel.gnu.linkonce.tb.*)

.rela.tbss
 *(.rela.tbss .rela.tbss.* .rela.gnu.linkonce.tb.*)

.rel.ctors
 *(.rel.ctors)

.rela.ctors
 *(.rela.ctors)

.rel.dtors
 *(.rel.dtors)

.rela.dtors
 *(.rela.dtors)

.rel.got
 *(.rel.got)

.rela.got
 *(.rela.got)

.rel.bss
 *(.rel.bss .rel.bss.* .rel.gnu.linkonce.b.*)

.rela.bss
 *(.rela.bss .rela.bss.* .rela.gnu.linkonce.b.*)

.rel.iplt       0x01f00000        0x0
                [!provide]                PROVIDE (__rel_iplt_start, .)
 *(.rel.iplt)
 .rel.iplt      0x01f00000        0x0 armc-start.o
                [!provide]                PROVIDE (__rel_iplt_end, .)

.rela.iplt      0x01f00000        0x0
                [!provide]                PROVIDE (__rela_iplt_start, .)
 *(.rela.iplt)
                [!provide]                PROVIDE (__rela_iplt_end, .)

.rel.plt
 *(.rel.plt)

.rela.plt
 *(.rela.plt)

.init
 *(.init)

.plt
 *(.plt)

.iplt           0x01f00000        0x0
 *(.iplt)
 .iplt          0x01f00000        0x0 armc-start.o

.text           0x01f00000    0x58008
 *(.text.startup .text.startup.*)
 .text.startup  0x01f00000       0x40 armc-start.o
                0x01f00000                _start
 .text.startup._GLOBAL__sub_I_versionMajor
                0x01f00040       0xa0 main.o
 *(.text.unlikely .text.*_unlikely)
 *(.text.exit .text.exit.*)
 *(.text.hot .text.hot.*)
 *(.text .stub .text.* .gnu.linkonce.t.*)
 .text          0x01f000e0        0x0 armc-start.o
 .text._reset_  0x01f000e0       0xc0 armc-start.o
 .text._get_stack_pointer
                0x01f001a0        0x8 armc-start.o
                0x01f001a0                _get_stack_pointer
 .text._get_cpsr
                0x01f001a8        0x8 armc-start.o
                0x01f001a8                _get_cpsr
 .text._enable_interrupts
                0x01f001b0       0x10 armc-start.o
                0x01f001b0                _enable_interrupts
 .text._disable_interrupts
                0x01f001c0       0x10 armc-start.o
                0x01f001c0                _disable_interrupts
 .text._undefined_instruction_handler_
                0x01f001d0       0x14 armc-start.o
 .text._prefetch_abort_handler_
                0x01f001e4       0x14 armc-start.o
 .text._data_abort_handler_
                0x01f001f8       0x14 armc-start.o
 .text._swi_handler_
                0x01f0020c       0x14 armc-start.o
 .text._enable_unaligned_access
                0x01f00220       0x14 armc-start.o
                0x01f00220                _enable_unaligned_access
 .text._enable_l1_cache
                0x01f00234       0x18 armc-start.o
                0x01f00234                _enable_l1_cache
 .text._invalidate_icache
                0x01f0024c        0xc armc-start.o
                0x01f0024c                _invalidate_icache
 .text._invalidate_dcache
                0x01f00258        0xc armc-start.o
                0x01f00258                _invalidate_dcache
 .text._clean_invalidate_dcache
                0x01f00264        0xc armc-start.o
                0x01f00264                _clean_invalidate_dcache
 .text._invalidate_dcache_mva
                0x01f00270        0x8 armc-start.o
                0x01f00270                _invalidate_dcache_mva
 .text._clean_invalidate_dcache_mva
                0x01f00278        0x8 armc-start.o
                0x01f00278                _clean_invalidate_dcache_mva
 .text._invalidate_dtlb
                0x01f00280        0xc armc-start.o
                0x01f00280                _invalidate_dtlb
 .text._invalidate_dtlb_mva
                0x01f0028c        0x8 armc-start.o
                0x01f0028c                _invalidate_dtlb_mva
 .text._data_memory_barrier
                0x01f00294       0xec armc-start.o
                0x01f00294                _data_memory_barrier
                0x01f0029c                _init_core
                0x01f0032c                _spin_core
                0x01f00370                _get_core
 .text._toggle_test_pin
                0x01f00380       0x28 armc-start.o
                0x01f00380                _toggle_test_pin
 .text          0x01f003a8        0x0 armc-cstartup.o
 .text._init    0x01f003a8        0x4 armc-cstartup.o
                0x01f003a8                _init
 .text._cstartup
                0x01f003ac      0x174 armc-cstartup.o
                0x01f003ac                _cstartup
 .text          0x01f00520        0x0 armc-cstubs.o
 .text._exit    0x01f00520        0x4 armc-cstubs.o
                0x01f00520                _exit
 .text._close   0x01f00524        0x8 armc-cstubs.o
                0x01f00524                _close
 .text.execve   0x01f0052c       0x18 armc-cstubs.o
                0x01f0052c                execve
 .text.fork     0x01f00544       0x18 armc-cstubs.o
                0x01f00544                fork
 .text._fstat   0x01f0055c       0x10 armc-cstubs.o
                0x01f0055c                _fstat
 .text.getpid   0x01f0056c        0x8 armc-cstubs.o
                0x01f0056c                getpid
 .text._getpid  0x01f00574        0x8 armc-cstubs.o
                0x01f00574                _getpid
 .text._isatty  0x01f0057c        0x8 armc-cstubs.o
                0x01f0057c                _isatty
 .text.kill     0x01f00584       0x18 armc-cstubs.o
                0x01f00584                kill
 .text._kill    0x01f0059c       0x18 armc-cstubs.o
                0x01f0059c                _kill
 .text.link     0x01f005b4       0x18 armc-cstubs.o
                0x01f005b4                link
 .text._lseek   0x01f005cc        0x8 armc-cstubs.o
                0x01f005cc                _lseek
 .text.open     0x01f005d4        0x8 armc-cstubs.o
                0x01f005d4                open
 .text._read    0x01f005dc        0x8 armc-cstubs.o
                0x01f005dc                _read
 .text._sbrk    0x01f005e4       0x2c armc-cstubs.o
                0x01f005e4                _sbrk
 .text.stat     0x01f00610       0x10 armc-cstubs.o
                0x01f00610                stat
 .text.times    0x01f00620        0x8 armc-cstubs.o
                0x01f00620                times
 .text.unlink   0x01f00628       0x18 armc-cstubs.o
                0x01f00628                unlink
 .text.wait     0x01f00640       0x18 armc-cstubs.o
                0x01f00640                wait
 .text.outbyte  0x01f00658        0x4 armc-cstubs.o
                0x01f00658                outbyte
 .text._write   0x01f0065c       0x2c armc-cstubs.o
                0x01f0065c                _write
 .text          0x01f00688        0x0 armc-cppstubs.o
 .text._Znwj    0x01f00688        0x4 armc-cppstubs.o
                0x01f00688                operator new(unsigned int)
 .text._ZdlPv   0x01f0068c        0x4 armc-cppstubs.o
                0x01f0068c                operator delete(void*)
 .text._ZSt17__throw_bad_allocv
                0x01f00690        0x4 armc-cppstubs.o
                0x01f00690                std::__throw_bad_alloc()
 .text._ZSt20__throw_length_errorPKc
                0x01f00694        0x4 armc-cppstubs.o
                0x01f00694                std::__throw_length_error(char const*)
 .text          0x01f00698        0x0 exception.o
 .text.reboot_now
                0x01f00698       0x24 exception.o
                0x01f00698                reboot_now
 .text.dump_digit
                0x01f006bc       0x14 exception.o
                0x01f006bc                dump_digit
 .text.dump_hex
                0x01f006d0       0x30 exception.o
                0x01f006d0                dump_hex
 .text.dump_binary
                0x01f00700       0x28 exception.o
                0x01f00700                dump_binary
 .text.dump_string
                0x01f00728       0x28 exception.o
                0x01f00728                dump_string
 .text.dump_info
                0x01f00750      0x464 exception.o
                0x01f00750                dump_info
 .text.undefined_instruction_handler
                0x01f00bb4       0x10 exception.o
                0x01f00bb4                undefined_instruction_handler
 .text.prefetch_abort_handler
                0x01f00bc4       0x10 exception.o
                0x01f00bc4                prefetch_abort_handler
 .text.data_abort_handler
                0x01f00bd4       0x10 exception.o
                0x01f00bd4                data_abort_handler
 .text.swi_handler
                0x01f00be4       0x10 exception.o
                0x01f00be4                swi_handler
 .text          0x01f00bf4        0x0 main.o
 .text._ZN7IEC_Bus15PortB_OnPortOutEPvh
                0x01f00bf4      0x17c main.o
                0x01f00bf4                IEC_Bus::PortB_OnPortOut(void*, unsigned char)
 .text._Z9write6502th
                0x01f00d70       0x60 main.o
                0x01f00d70                write6502(unsigned short, unsigned char)
 .text._ZN9DiskCaddyD2Ev
                0x01f00dd0       0x20 main.o
                0x01f00dd0                DiskCaddy::~DiskCaddy()
                0x01f00dd0                DiskCaddy::~DiskCaddy()
 .text._Z17write6502ExtraRAMth
                0x01f00df0       0x54 main.o
                0x01f00df0                write6502ExtraRAM(unsigned short, unsigned char)
 .text._ZL16AttemptToLoadROMPc
                0x01f00e44       0xd8 main.o
 .text._Z8read6502t
                0x01f00f1c       0x80 main.o
                0x01f00f1c                read6502(unsigned short)
 .text._Z16read6502ExtraRAMt
                0x01f00f9c       0x64 main.o
                0x01f00f9c                read6502ExtraRAM(unsigned short)
 .text._ZN7IEC_Bus10InitialiseEv
                0x01f01000      0x288 main.o
                0x01f01000                IEC_Bus::Initialise()
 .text.LogWrite
                0x01f01288       0x30 main.o
                0x01f01288                LogWrite
 .text.GetMACAddress
                0x01f012b8       0x70 main.o
                0x01f012b8                GetMACAddress
 .text.SetPowerStateOn
                0x01f01328       0x54 main.o
                0x01f01328                SetPowerStateOn
 .text.usDelay  0x01f0137c       0x34 main.o
                0x01f0137c                usDelay
 .text.MsDelay  0x01f013b0       0x3c main.o
                0x01f013b0                MsDelay
 .text.StartKernelTimer
                0x01f013ec        0x4 main.o
                0x01f013ec                StartKernelTimer
 .text.CancelKernelTimer
                0x01f013f0        0x4 main.o
                0x01f013f0                CancelKernelTimer
 .text.ConnectInterrupt
                0x01f013f4        0x4 main.o
                0x01f013f4                ConnectInterrupt
 .text.get_fattime
                0x01f013f8        0x8 main.o
                0x01f013f8                get_fattime
 .text._Z8peek6502t
                0x01f01400       0x80 main.o
                0x01f01400                peek6502(unsigned short)
 .text._Z18InitialiseHardwarev
                0x01f01480       0x84 main.o
                0x01f01480                InitialiseHardware()
 .text._Z12UpdateScreenv
                0x01f01504      0x518 main.o
                0x01f01504                UpdateScreen()
 .text._Z14BeginEmulatingP11FileBrowserPKc
                0x01f01a1c       0x80 main.o
                0x01f01a1c                BeginEmulating(FileBrowser*, char const*)
 .text._ZN9SingletonI8KeyboardE8InstanceEv
                0x01f01a9c       0x34 main.o
                0x01f01a9c                Singleton<Keyboard>::Instance()
 .text._ZN9SingletonI13InputMappingsE8InstanceEv
                0x01f01ad0       0x34 main.o
                0x01f01ad0                Singleton<InputMappings>::Instance()
 .text.kernel_main
                0x01f01b04      0x92c main.o
                0x01f01b04                kernel_main
 .text._Z8emulatorv
                0x01f02430     0x131c main.o
                0x01f02430                emulator()
 .text.run_core
                0x01f0374c       0x24 main.o
                0x01f0374c                run_core
 .text          0x01f03770        0x0 rpi-aux.o
 .text.RPI_GetAux
                0x01f03770        0xc rpi-aux.o
                0x01f03770                RPI_GetAux
 .text.RPI_AuxMiniUartInit
                0x01f0377c      0x17c rpi-aux.o
                0x01f0377c                RPI_AuxMiniUartInit
 .text.RPI_AuxMiniUartWrite
                0x01f038f8       0x24 rpi-aux.o
                0x01f038f8                RPI_AuxMiniUartWrite
 .text.RPI_EnableUart
                0x01f0391c       0x24 rpi-aux.o
                0x01f0391c                RPI_EnableUart
 .text          0x01f03940        0x0 rpi-mailbox-interface.o
 .text.RPI_PropertyInit
                0x01f03940       0x30 rpi-mailbox-interface.o
                0x01f03940                RPI_PropertyInit
 .text.RPI_PropertyAddTag
                0x01f03970      0x658 rpi-mailbox-interface.o
                0x01f03970                RPI_PropertyAddTag
 .text.RPI_PropertyProcess
                0x01f03fc8       0x44 rpi-mailbox-interface.o
                0x01f03fc8                RPI_PropertyProcess
 .text.RPI_PropertyProcessNoCheck
                0x01f0400c       0x34 rpi-mailbox-interface.o
                0x01f0400c                RPI_PropertyProcessNoCheck
 .text.RPI_PropertyGet
                0x01f04040       0x94 rpi-mailbox-interface.o
                0x01f04040                RPI_PropertyGet
 .text          0x01f040d4        0x0 rpi-mailbox.o
 .text.RPI_Mailbox0Write
                0x01f040d4       0x2c rpi-mailbox.o
                0x01f040d4                RPI_Mailbox0Write
 .text.RPI_Mailbox0Read
                0x01f04100       0x40 rpi-mailbox.o
                0x01f04100                RPI_Mailbox0Read
 .text.RPI_Mailbox0Flush
                0x01f04140       0x34 rpi-mailbox.o
                0x01f04140                RPI_Mailbox0Flush
 .text          0x01f04174        0x0 rpi-gpio.o
 .text.RPI_SetGpioPinFunction
                0x01f04174       0x70 rpi-gpio.o
                0x01f04174                RPI_SetGpioPinFunction
 .text.RPI_SetGpioOutput
                0x01f041e4       0x74 rpi-gpio.o
                0x01f041e4                RPI_SetGpioOutput
 .text.RPI_SetGpioInput
                0x01f04258       0x6c rpi-gpio.o
                0x01f04258                RPI_SetGpioInput
 .text.RPI_GetGpioValue
                0x01f042c4       0x70 rpi-gpio.o
                0x01f042c4                RPI_GetGpioValue
 .text.RPI_ToggleGpio
                0x01f04334       0xb8 rpi-gpio.o
                0x01f04334                RPI_ToggleGpio
 .text.RPI_SetGpioHi
                0x01f043ec       0x4c rpi-gpio.o
                0x01f043ec                RPI_SetGpioHi
 .text.RPI_SetGpioLo
                0x01f04438       0x4c rpi-gpio.o
                0x01f04438                RPI_SetGpioLo
 .text.RPI_SetGpioValue
                0x01f04484       0xb0 rpi-gpio.o
                0x01f04484                RPI_SetGpioValue
 .text.EnableGpioDetect
                0x01f04534      0x1d8 rpi-gpio.o
                0x01f04534                EnableGpioDetect
 .text.DisableGpioDetect
                0x01f0470c      0x1dc rpi-gpio.o
                0x01f0470c                DisableGpioDetect
 .text.ClearGpioEvent
                0x01f048e8       0x30 rpi-gpio.o
                0x01f048e8                ClearGpioEvent
 .text.SetACTLed
                0x01f04918       0x78 rpi-gpio.o
                0x01f04918                SetACTLed
 .text.RPI_TouchInit
                0x01f04990       0x44 rpi-gpio.o
                0x01f04990                RPI_TouchInit
 .text.RPI_UpdateTouch
                0x01f049d4       0x18 rpi-gpio.o
                0x01f049d4                RPI_UpdateTouch
 .text.RPI_GpioVirtGetAddress
                0x01f049ec       0x10 rpi-gpio.o
                0x01f049ec                RPI_GpioVirtGetAddress
 .text.RPI_GpioVirtInit
                0x01f049fc       0x44 rpi-gpio.o
                0x01f049fc                RPI_GpioVirtInit
 .text.RPI_GpioVirtSetLed
                0x01f04a40       0x78 rpi-gpio.o
                0x01f04a40                RPI_GpioVirtSetLed
 .text          0x01f04ab8        0x0 rpi-interrupts.o
 .text.RPI_GetIrqController
                0x01f04ab8        0xc rpi-interrupts.o
                0x01f04ab8                RPI_GetIrqController
 .text          0x01f04ac4        0x0 cache.o
 .text.InvalidateDataCache
                0x01f04ac4       0xc8 cache.o
                0x01f04ac4                InvalidateDataCache
 .text.CleanDataCache
                0x01f04b8c       0xc8 cache.o
                0x01f04b8c                CleanDataCache
 .text.map_4k_page
                0x01f04c54       0x2c cache.o
                0x01f04c54                map_4k_page
 .text.enable_MMU_and_IDCaches
                0x01f04c80      0x1fc cache.o
                0x01f04c80                enable_MMU_and_IDCaches
 .text          0x01f04e7c        0x0 ff.o
 .text._ZL16pattern_matchingPKcS0_ii
                0x01f04e7c      0x164 ff.o
 .text.unlikely._ZL11sync_windowP5FATFS.part.3
                0x01f04fe0       0x84 ff.o
 .text._ZL12get_fileinfoP3DIRP7FILINFO
                0x01f05064      0x4b0 ff.o
 .text._ZL8check_fsP5FATFSm
                0x01f05514      0x134 ff.o
 .text.unlikely._ZL11move_windowP5FATFSm
                0x01f05648       0xc8 ff.o
 .text._ZL11find_volumePPKcPP5FATFSh
                0x01f05710      0xaac ff.o
 .text._ZL7sync_fsP5FATFS
                0x01f061bc      0x3e4 ff.o
 .text._ZL7put_fatP5FATFSmm.part.5
                0x01f065a0      0x458 ff.o
 .text._ZL12remove_chainP5_FDIDmm
                0x01f069f8      0x864 ff.o
 .text._ZL7get_fatP5_FDIDm
                0x01f0725c      0x51c ff.o
 .text._ZL12create_chainP5_FDIDm
                0x01f07778      0xa04 ff.o
 .text._ZL8dir_nextP3DIRi.constprop.17
                0x01f0817c       0xfc ff.o
 .text._ZL7dir_sdiP3DIRm
                0x01f08278      0x6d4 ff.o
 .text._ZL9dir_allocP3DIRj
                0x01f0894c      0x608 ff.o
 .text._ZL10store_xdirP3DIR
                0x01f08f54      0x5d0 ff.o
 .text._ZL10dir_removeP3DIR
                0x01f09524      0x220 ff.o
 .text._ZL9load_xdirP3DIR
                0x01f09744      0xd74 ff.o
 .text._ZL8dir_readP3DIRi.constprop.10
                0x01f0a4b8      0x6c0 ff.o
 .text._ZL8dir_findP3DIR
                0x01f0ab78      0x554 ff.o
 .text._ZL12dir_registerP3DIR
                0x01f0b0cc     0x14b0 ff.o
 .text._ZL11follow_pathP3DIRPKc
                0x01f0c57c      0x6cc ff.o
 .text.f_mount  0x01f0cc48       0xcc ff.o
                0x01f0cc48                f_mount
 .text.f_open   0x01f0cd14      0x874 ff.o
                0x01f0cd14                f_open
 .text.f_read   0x01f0d588      0x9dc ff.o
                0x01f0d588                f_read
 .text.f_write  0x01f0df64      0x9f0 ff.o
                0x01f0df64                f_write
 .text.f_sync   0x01f0e954      0x454 ff.o
                0x01f0e954                f_sync
 .text.f_close  0x01f0eda8      0x494 ff.o
                0x01f0eda8                f_close
 .text.f_chdir  0x01f0f23c      0x128 ff.o
                0x01f0f23c                f_chdir
 .text.f_getcwd
                0x01f0f364      0x3c8 ff.o
                0x01f0f364                f_getcwd
 .text.f_lseek  0x01f0f72c      0x3c4 ff.o
                0x01f0f72c                f_lseek
 .text.f_opendir
                0x01f0faf0      0x1cc ff.o
                0x01f0faf0                f_opendir
 .text.f_closedir
                0x01f0fcbc       0x58 ff.o
                0x01f0fcbc                f_closedir
 .text.f_readdir
                0x01f0fd14      0x17c ff.o
                0x01f0fd14                f_readdir
 .text.f_findnext
                0x01f0fe90      0x188 ff.o
                0x01f0fe90                f_findnext
 .text.f_findfirst
                0x01f10018      0x1dc ff.o
                0x01f10018                f_findfirst
 .text.f_stat   0x01f101f4       0x78 ff.o
                0x01f101f4                f_stat
 .text.f_getfree
                0x01f1026c      0x398 ff.o
                0x01f1026c                f_getfree
 .text.f_truncate
                0x01f10604      0x180 ff.o
                0x01f10604                f_truncate
 .text.f_unlink
                0x01f10784      0x20c ff.o
                0x01f10784                f_unlink
 .text.f_mkdir  0x01f10990      0xcbc ff.o
                0x01f10990                f_mkdir
 .text.f_rename
                0x01f1164c      0x420 ff.o
                0x01f1164c                f_rename
 .text.f_chmod  0x01f11a6c       0xcc ff.o
                0x01f11a6c                f_chmod
 .text.f_utime  0x01f11b38       0xf0 ff.o
                0x01f11b38                f_utime
 .text.ff_convert
                0x01f11c28        0x4 ff.o
                0x01f11c28                ff_convert
 .text.ff_wtoupper
                0x01f11c2c        0x4 ff.o
                0x01f11c2c                ff_wtoupper
 .text          0x01f11c30        0x0 interrupt.o
 .text.InterruptSystemInitialize
                0x01f11c30       0x4c interrupt.o
                0x01f11c30                InterruptSystemInitialize
 .text.InterruptSystemConnectIRQ
                0x01f11c7c       0x5c interrupt.o
                0x01f11c7c                InterruptSystemConnectIRQ
 .text.InterruptSystemDisconnectIRQ
                0x01f11cd8       0x60 interrupt.o
                0x01f11cd8                InterruptSystemDisconnectIRQ
 .text.InterruptSystemEnableIRQ
                0x01f11d38       0x44 interrupt.o
                0x01f11d38                InterruptSystemEnableIRQ
 .text.InterruptSystemDisableIRQ
                0x01f11d7c       0x44 interrupt.o
                0x01f11d7c                InterruptSystemDisableIRQ
 .text.InterruptHandler
                0x01f11dc0      0x160 interrupt.o
                0x01f11dc0                InterruptHandler
 .text          0x01f11f20        0x0 keyboard.o
 .text._ZN9SingletonI8KeyboardED2Ev
                0x01f11f20        0x4 keyboard.o
                0x01f11f20                Singleton<Keyboard>::~Singleton()
                0x01f11f20                Singleton<Keyboard>::~Singleton()
 .text._ZN8KeyboardD2Ev
                0x01f11f24        0x4 keyboard.o
                0x01f11f24                Keyboard::~Keyboard()
                0x01f11f24                Keyboard::~Keyboard()
 .text._ZN8KeyboardD0Ev
                0x01f11f28       0x14 keyboard.o
                0x01f11f28                Keyboard::~Keyboard()
 .text._ZN9SingletonI8KeyboardED0Ev
                0x01f11f3c       0x14 keyboard.o
                0x01f11f3c                Singleton<Keyboard>::~Singleton()
 .text._ZN8Keyboard29USBKeyboardDeviceTimerHandlerEjPvS0_
                0x01f11f50      0x160 keyboard.o
                0x01f11f50                Keyboard::USBKeyboardDeviceTimerHandler(unsigned int, void*, void*)
 .text._ZN8Keyboard20KeyPressedHandlerRawEP18TUSBKeyboardDevicehPKh
                0x01f120b0      0x370 keyboard.o
                0x01f120b0                Keyboard::KeyPressedHandlerRaw(TUSBKeyboardDevice*, unsigned char, unsigned char const*)
 .text._ZN8KeyboardC2Ev
                0x01f12420       0x5c keyboard.o
                0x01f12420                Keyboard::Keyboard()
                0x01f12420                Keyboard::Keyboard()
 .text          0x01f1247c        0x0 Pi1541.o
 .text._ZN6Pi1541C2Ev
                0x01f1247c       0x48 Pi1541.o
                0x01f1247c                Pi1541::Pi1541()
                0x01f1247c                Pi1541::Pi1541()
 .text._ZN6Pi154110InitialiseEv
                0x01f124c4       0x10 Pi1541.o
                0x01f124c4                Pi1541::Initialise()
 .text._ZN6Pi15416UpdateEv
                0x01f124d4       0x30 Pi1541.o
                0x01f124d4                Pi1541::Update()
 .text._ZN6Pi15415ResetEv
                0x01f12504      0x1ac Pi1541.o
                0x01f12504                Pi1541::Reset()
 .text          0x01f126b0        0x0 DiskImage.o
 .text._ZN9DiskImage8WriteNIBEv.part.1
                0x01f126b0      0x194 DiskImage.o
 .text._ZN9DiskImage8WriteNBZEv.part.2
                0x01f12844      0x134 DiskImage.o
 .text._ZN9DiskImage8WriteG64Ev.part.0
                0x01f12978      0x33c DiskImage.o
 .text._ZN9DiskImageC2Ev
                0x01f12cb4       0x34 DiskImage.o
                0x01f12cb4                DiskImage::DiskImage()
                0x01f12cb4                DiskImage::DiskImage()
 .text._ZN9DiskImage9DumpTrackEj
                0x01f12ce8       0x64 DiskImage.o
                0x01f12ce8                DiskImage::DumpTrack(unsigned int)
 .text._ZN9DiskImage8WriteG64Ev
                0x01f12d4c       0x18 DiskImage.o
                0x01f12d4c                DiskImage::WriteG64()
 .text._ZN9DiskImage8CloseG64Ev
                0x01f12d64       0x3c DiskImage.o
                0x01f12d64                DiskImage::CloseG64()
 .text._ZN9DiskImage8WriteNIBEv
                0x01f12da0       0x18 DiskImage.o
                0x01f12da0                DiskImage::WriteNIB()
 .text._ZN9DiskImage8CloseNIBEv
                0x01f12db8       0x3c DiskImage.o
                0x01f12db8                DiskImage::CloseNIB()
 .text._ZN9DiskImage8WriteNBZEv
                0x01f12df4       0x18 DiskImage.o
                0x01f12df4                DiskImage::WriteNBZ()
 .text._ZN9DiskImage8CloseNBZEv
                0x01f12e0c       0x3c DiskImage.o
                0x01f12e0c                DiskImage::CloseNBZ()
 .text._ZN9DiskImage28GetDiskImageTypeViaExtentionEPKc
                0x01f12e48      0x124 DiskImage.o
                0x01f12e48                DiskImage::GetDiskImageTypeViaExtention(char const*)
 .text._ZN9DiskImage20IsDiskImageExtentionEPKc
                0x01f12f6c      0x114 DiskImage.o
                0x01f12f6c                DiskImage::IsDiskImageExtention(char const*)
 .text._ZN9DiskImage14IsLSTExtentionEPKc
                0x01f13080       0x54 DiskImage.o
                0x01f13080                DiskImage::IsLSTExtention(char const*)
 .text._ZN9DiskImage11DecodeBlockEjiPhi
                0x01f130d4      0x160 DiskImage.o
                0x01f130d4                DiskImage::DecodeBlock(unsigned int, int, unsigned char*, int)
 .text._ZN9DiskImage8FindSyncEjiiPi
                0x01f13234       0xc0 DiskImage.o
                0x01f13234                DiskImage::FindSync(unsigned int, int, int, int*)
 .text._ZN9DiskImage16FindSectorHeaderEjjPh
                0x01f132f4      0x290 DiskImage.o
                0x01f132f4                DiskImage::FindSectorHeader(unsigned int, unsigned int, unsigned char*)
 .text._ZN9DiskImage13ConvertSectorEjjPh
                0x01f13584      0x430 DiskImage.o
                0x01f13584                DiskImage::ConvertSector(unsigned int, unsigned int, unsigned char*)
 .text._ZN9DiskImage16GetDecodedSectorEjjPh
                0x01f139b4       0x30 DiskImage.o
                0x01f139b4                DiskImage::GetDecodedSector(unsigned int, unsigned int, unsigned char*)
 .text._ZN9DiskImage8WriteD64Ev.part.3
                0x01f139e4      0x1b0 DiskImage.o
 .text._ZN9DiskImage8WriteD64Ev
                0x01f13b94       0x18 DiskImage.o
                0x01f13b94                DiskImage::WriteD64()
 .text._ZN9DiskImage8CloseD64Ev
                0x01f13bac       0x3c DiskImage.o
                0x01f13bac                DiskImage::CloseD64()
 .text._ZN9DiskImage5CloseEv
                0x01f13be8       0xf0 DiskImage.o
                0x01f13be8                DiskImage::Close()
 .text._ZN9DiskImage7OpenD64EPK7FILINFOPhj
                0x01f13cd8      0x168 DiskImage.o
                0x01f13cd8                DiskImage::OpenD64(FILINFO const*, unsigned char*, unsigned int)
 .text._ZN9DiskImage7OpenG64EPK7FILINFOPhj
                0x01f13e40      0x10c DiskImage.o
                0x01f13e40                DiskImage::OpenG64(FILINFO const*, unsigned char*, unsigned int)
 .text._ZN9DiskImage7OpenNIBEPK7FILINFOPhj
                0x01f13f4c      0x15c DiskImage.o
                0x01f13f4c                DiskImage::OpenNIB(FILINFO const*, unsigned char*, unsigned int)
 .text._ZN9DiskImage7OpenNBZEPK7FILINFOPhj
                0x01f140a8      0x144 DiskImage.o
                0x01f140a8                DiskImage::OpenNBZ(FILINFO const*, unsigned char*, unsigned int)
 .text._ZN9DiskImage5GetIDEjPh
                0x01f141ec       0x1c DiskImage.o
                0x01f141ec                DiskImage::GetID(unsigned int, unsigned char*)
 .text._ZN9DiskImage13LastTrackUsedEv
                0x01f14208       0x34 DiskImage.o
                0x01f14208                DiskImage::LastTrackUsed()
 .text          0x01f1423c        0x0 iec_bus.o
 .text._ZN7IEC_Bus4ReadEv
                0x01f1423c      0x668 iec_bus.o
                0x01f1423c                IEC_Bus::Read()
 .text          0x01f148a4        0x0 iec_commands.o
 .text._ZL9ParseNamePKcPcbb.constprop.17
                0x01f148a4      0x18c iec_commands.o
 .text._ZN12IEC_Commands18WriteIECSerialPortEhb.part.7
                0x01f14a30      0x89c iec_commands.o
 .text._ZN7IEC_Bus11RefreshOutsEv
                0x01f152cc      0x228 iec_commands.o
                0x01f152cc                IEC_Bus::RefreshOuts()
 .text._ZN12IEC_Commands17ReadIECSerialPortERh.part.8
                0x01f154f4      0x71c iec_commands.o
 .text._Z5Errorhhh
                0x01f15c10      0x1fc iec_commands.o
                0x01f15c10                Error(unsigned char, unsigned char, unsigned char)
 .text._ZN12IEC_Commands7Channel5CloseEv
                0x01f15e0c       0x68 iec_commands.o
                0x01f15e0c                IEC_Commands::Channel::Close()
 .text._ZN12IEC_CommandsC2Ev
                0x01f15e74       0xe8 iec_commands.o
                0x01f15e74                IEC_Commands::IEC_Commands()
                0x01f15e74                IEC_Commands::IEC_Commands()
 .text._ZN12IEC_Commands5ResetEv
                0x01f15f5c       0xd0 iec_commands.o
                0x01f15f5c                IEC_Commands::Reset()
 .text._ZN12IEC_Commands16CloseAllChannelsEv
                0x01f1602c       0x7c iec_commands.o
                0x01f1602c                IEC_Commands::CloseAllChannels()
 .text._ZN12IEC_Commands8CheckATNEv
                0x01f160a8       0x44 iec_commands.o
                0x01f160a8                IEC_Commands::CheckATN()
 .text._ZN12IEC_Commands18WriteIECSerialPortEhb
                0x01f160ec      0x1a4 iec_commands.o
                0x01f160ec                IEC_Commands::WriteIECSerialPort(unsigned char, bool)
 .text._ZN12IEC_Commands17ReadIECSerialPortERh
                0x01f16290       0x80 iec_commands.o
                0x01f16290                IEC_Commands::ReadIECSerialPort(unsigned char&)
 .text._ZN12IEC_Commands16SimulateIECBeginEv
                0x01f16310      0x1c4 iec_commands.o
                0x01f16310                IEC_Commands::SimulateIECBegin()
 .text._ZN12IEC_Commands5EnterER3DIRR7FILINFO
                0x01f164d4       0xb8 iec_commands.o
                0x01f164d4                IEC_Commands::Enter(DIR&, FILINFO&)
 .text._ZN12IEC_Commands2CDEiPc
                0x01f1658c      0x3d4 iec_commands.o
                0x01f1658c                IEC_Commands::CD(int, char*)
 .text._ZN12IEC_Commands5MKDirEiPc
                0x01f16960       0xd4 iec_commands.o
                0x01f16960                IEC_Commands::MKDir(int, char*)
 .text._ZN12IEC_Commands5RMDirEv
                0x01f16a34      0x148 iec_commands.o
                0x01f16a34                IEC_Commands::RMDir()
 .text._ZN12IEC_Commands13FolderCommandEv
                0x01f16b7c      0x14c iec_commands.o
                0x01f16b7c                IEC_Commands::FolderCommand()
 .text._ZN12IEC_Commands4CopyEv
                0x01f16cc8      0x2c8 iec_commands.o
                0x01f16cc8                IEC_Commands::Copy()
 .text._ZN12IEC_Commands6MemoryEv
                0x01f16f90      0x108 iec_commands.o
                0x01f16f90                IEC_Commands::Memory()
 .text._ZN12IEC_Commands3NewEv
                0x01f17098      0x458 iec_commands.o
                0x01f17098                IEC_Commands::New()
 .text._ZN12IEC_Commands6RenameEv
                0x01f174f0      0x1d4 iec_commands.o
                0x01f174f0                IEC_Commands::Rename()
 .text._ZN12IEC_Commands7ScratchEv
                0x01f176c4      0x144 iec_commands.o
                0x01f176c4                IEC_Commands::Scratch()
 .text._ZN12IEC_Commands4UserEv
                0x01f17808      0x148 iec_commands.o
                0x01f17808                IEC_Commands::User()
 .text._ZN12IEC_Commands14ProcessCommandEv
                0x01f17950      0x1fc iec_commands.o
                0x01f17950                IEC_Commands::ProcessCommand()
 .text._ZN12IEC_Commands9FindFirstER3DIRPKcR7FILINFO
                0x01f17b4c       0xc0 iec_commands.o
                0x01f17b4c                IEC_Commands::FindFirst(DIR&, char const*, FILINFO&)
 .text._ZN12IEC_Commands10SendBufferERNS_7ChannelEb
                0x01f17c0c      0x244 iec_commands.o
                0x01f17c0c                IEC_Commands::SendBuffer(IEC_Commands::Channel&, bool)
 .text._ZN12IEC_Commands8LoadFileEv
                0x01f17e50      0x2b4 iec_commands.o
                0x01f17e50                IEC_Commands::LoadFile()
 .text._ZN12IEC_Commands8SaveFileEv
                0x01f18104       0xfc iec_commands.o
                0x01f18104                IEC_Commands::SaveFile()
 .text._ZN12IEC_Commands9SendErrorEv
                0x01f18200      0x1ec iec_commands.o
                0x01f18200                IEC_Commands::SendError()
 .text._ZN12IEC_Commands17AddDirectoryEntryERNS_7ChannelEPKcti
                0x01f183ec      0x2ec iec_commands.o
                0x01f183ec                IEC_Commands::AddDirectoryEntry(IEC_Commands::Channel&, char const*, unsigned short, int)
 .text._ZN12IEC_Commands13LoadDirectoryEv
                0x01f186d8      0x788 iec_commands.o
                0x01f186d8                IEC_Commands::LoadDirectory()
 .text._ZN12IEC_Commands8OpenFileEv
                0x01f18e60      0x3ac iec_commands.o
                0x01f18e60                IEC_Commands::OpenFile()
 .text._ZN12IEC_Commands6ListenEv
                0x01f1920c      0x288 iec_commands.o
                0x01f1920c                IEC_Commands::Listen()
 .text._ZN12IEC_Commands4TalkEv
                0x01f19494      0x224 iec_commands.o
                0x01f19494                IEC_Commands::Talk()
 .text._ZN12IEC_Commands17SimulateIECUpdateEv
                0x01f196b8      0x43c iec_commands.o
                0x01f196b8                IEC_Commands::SimulateIECUpdate()
 .text._ZN12IEC_Commands9CloseFileEh
                0x01f19af4       0x98 iec_commands.o
                0x01f19af4                IEC_Commands::CloseFile(unsigned char)
 .text          0x01f19b8c        0x0 m6502.o
 .text._ZN5M65023ANCEv
                0x01f19b8c       0x50 m6502.o
                0x01f19b8c                M6502::ANC()
 .text._ZN5M65023ANDEv
                0x01f19bdc       0x44 m6502.o
                0x01f19bdc                M6502::AND()
 .text._ZN5M65023ASLEv
                0x01f19c20       0x7c m6502.o
                0x01f19c20                M6502::ASL()
 .text._ZN5M65023BITEv
                0x01f19c9c       0x38 m6502.o
                0x01f19c9c                M6502::BIT()
 .text._ZN5M65023BRKEv
                0x01f19cd4        0x4 m6502.o
                0x01f19cd4                M6502::BRK()
 .text._ZN5M65023CLCEv
                0x01f19cd8       0x10 m6502.o
                0x01f19cd8                M6502::CLC()
 .text._ZN5M65023CLDEv
                0x01f19ce8       0x10 m6502.o
                0x01f19ce8                M6502::CLD()
 .text._ZN5M65023CLIEv
                0x01f19cf8       0x1c m6502.o
                0x01f19cf8                M6502::CLI()
 .text._ZN5M65023CLVEv
                0x01f19d14       0x10 m6502.o
                0x01f19d14                M6502::CLV()
 .text._ZN5M65023CMPEv
                0x01f19d24       0x44 m6502.o
                0x01f19d24                M6502::CMP()
 .text._ZN5M65023CPXEv
                0x01f19d68       0x44 m6502.o
                0x01f19d68                M6502::CPX()
 .text._ZN5M65023CPYEv
                0x01f19dac       0x44 m6502.o
                0x01f19dac                M6502::CPY()
 .text._ZN5M65023DECEv
                0x01f19df0       0x70 m6502.o
                0x01f19df0                M6502::DEC()
 .text._ZN5M65023DEXEv
                0x01f19e60       0x4c m6502.o
                0x01f19e60                M6502::DEX()
 .text._ZN5M65023DEYEv
                0x01f19eac       0x4c m6502.o
                0x01f19eac                M6502::DEY()
 .text._ZN5M65023EOREv
                0x01f19ef8       0x34 m6502.o
                0x01f19ef8                M6502::EOR()
 .text._ZN5M65023INCEv
                0x01f19f2c       0x70 m6502.o
                0x01f19f2c                M6502::INC()
 .text._ZN5M65023INXEv
                0x01f19f9c       0x4c m6502.o
                0x01f19f9c                M6502::INX()
 .text._ZN5M65023INYEv
                0x01f19fe8       0x4c m6502.o
                0x01f19fe8                M6502::INY()
 .text._ZN5M65023JAMEv
                0x01f1a034        0x4 m6502.o
                0x01f1a034                M6502::JAM()
 .text._ZN5M65023JMPEv
                0x01f1a038        0xc m6502.o
                0x01f1a038                M6502::JMP()
 .text._ZN5M65023JSREv
                0x01f1a044        0x4 m6502.o
                0x01f1a044                M6502::JSR()
 .text._ZN5M65023LDAEv
                0x01f1a048       0x44 m6502.o
                0x01f1a048                M6502::LDA()
 .text._ZN5M65023LDXEv
                0x01f1a08c       0x44 m6502.o
                0x01f1a08c                M6502::LDX()
 .text._ZN5M65023LDYEv
                0x01f1a0d0       0x44 m6502.o
                0x01f1a0d0                M6502::LDY()
 .text._ZN5M65023LSREv
                0x01f1a114       0x80 m6502.o
                0x01f1a114                M6502::LSR()
 .text._ZN5M65023NOPEv
                0x01f1a194        0x4 m6502.o
                0x01f1a194                M6502::NOP()
 .text._ZN5M65023ORAEv
                0x01f1a198       0x34 m6502.o
                0x01f1a198                M6502::ORA()
 .text._ZN5M65023PHAEv
                0x01f1a1cc       0x20 m6502.o
                0x01f1a1cc                M6502::PHA()
 .text._ZN5M65023PHPEv
                0x01f1a1ec       0x24 m6502.o
                0x01f1a1ec                M6502::PHP()
 .text._ZN5M65023PLAEv
                0x01f1a210       0x64 m6502.o
                0x01f1a210                M6502::PLA()
 .text._ZN5M65023PLPEv
                0x01f1a274       0x30 m6502.o
                0x01f1a274                M6502::PLP()
 .text._ZN5M65023ROLEv
                0x01f1a2a4       0x88 m6502.o
                0x01f1a2a4                M6502::ROL()
 .text._ZN5M65023ROREv
                0x01f1a32c       0x88 m6502.o
                0x01f1a32c                M6502::ROR()
 .text._ZN5M65023RTIEv
                0x01f1a3b4        0x4 m6502.o
                0x01f1a3b4                M6502::RTI()
 .text._ZN5M65023RTSEv
                0x01f1a3b8        0x4 m6502.o
                0x01f1a3b8                M6502::RTS()
 .text._ZN5M65023SECEv
                0x01f1a3bc       0x10 m6502.o
                0x01f1a3bc                M6502::SEC()
 .text._ZN5M65023SEDEv
                0x01f1a3cc       0x10 m6502.o
                0x01f1a3cc                M6502::SED()
 .text._ZN5M65023SEIEv
                0x01f1a3dc       0x10 m6502.o
                0x01f1a3dc                M6502::SEI()
 .text._ZN5M65023STAEv
                0x01f1a3ec       0x44 m6502.o
                0x01f1a3ec                M6502::STA()
 .text._ZN5M65023STXEv
                0x01f1a430       0x48 m6502.o
                0x01f1a430                M6502::STX()
 .text._ZN5M65023STYEv
                0x01f1a478       0x48 m6502.o
                0x01f1a478                M6502::STY()
 .text._ZN5M65023TAXEv
                0x01f1a4c0       0x44 m6502.o
                0x01f1a4c0                M6502::TAX()
 .text._ZN5M65023TAYEv
                0x01f1a504       0x44 m6502.o
                0x01f1a504                M6502::TAY()
 .text._ZN5M65023TSXEv
                0x01f1a548       0x44 m6502.o
                0x01f1a548                M6502::TSX()
 .text._ZN5M65023TXAEv
                0x01f1a58c       0x44 m6502.o
                0x01f1a58c                M6502::TXA()
 .text._ZN5M65023TXSEv
                0x01f1a5d0        0xc m6502.o
                0x01f1a5d0                M6502::TXS()
 .text._ZN5M65023TYAEv
                0x01f1a5dc       0x44 m6502.o
                0x01f1a5dc                M6502::TYA()
 .text._ZN5M65023ASREv
                0x01f1a620       0x38 m6502.o
                0x01f1a620                M6502::ASR()
 .text._ZN5M65023LXAEv
                0x01f1a658       0x50 m6502.o
                0x01f1a658                M6502::LXA()
 .text._ZN5M65023LAXEv
                0x01f1a6a8       0x4c m6502.o
                0x01f1a6a8                M6502::LAX()
 .text._ZN5M65023LASEv
                0x01f1a6f4       0x54 m6502.o
                0x01f1a6f4                M6502::LAS()
 .text._ZN5M65023SAXEv
                0x01f1a748       0x50 m6502.o
                0x01f1a748                M6502::SAX()
 .text._ZN5M65023SBXEv
                0x01f1a798       0x64 m6502.o
                0x01f1a798                M6502::SBX()
 .text._ZN5M65023SHAEv
                0x01f1a7fc       0x68 m6502.o
                0x01f1a7fc                M6502::SHA()
 .text._ZN5M65023SHYEv
                0x01f1a864       0x60 m6502.o
                0x01f1a864                M6502::SHY()
 .text._ZN5M65023DCPEv
                0x01f1a8c4       0x88 m6502.o
                0x01f1a8c4                M6502::DCP()
 .text._ZN5M65023SLOEv
                0x01f1a94c       0xa0 m6502.o
                0x01f1a94c                M6502::SLO()
 .text._ZN5M65023RLAEv
                0x01f1a9ec       0xa4 m6502.o
                0x01f1a9ec                M6502::RLA()
 .text._ZN5M65023SREEv
                0x01f1aa90       0x9c m6502.o
                0x01f1aa90                M6502::SRE()
 .text._ZN5M65023SHSEv
                0x01f1ab2c       0x70 m6502.o
                0x01f1ab2c                M6502::SHS()
 .text._ZN5M65023SHXEv
                0x01f1ab9c       0x60 m6502.o
                0x01f1ab9c                M6502::SHX()
 .text._ZN5M65023XAAEv
                0x01f1abfc       0x58 m6502.o
                0x01f1abfc                M6502::XAA()
 .text._ZN5M650210rel_5_8_T1Ev
                0x01f1ac54       0x28 m6502.o
                0x01f1ac54                M6502::rel_5_8_T1()
 .text._ZN5M650210rel_5_8_T3Ev
                0x01f1ac7c       0x2c m6502.o
                0x01f1ac7c                M6502::rel_5_8_T3()
 .text._ZN5M65029zp_2_1_T1Ev
                0x01f1aca8       0x38 m6502.o
                0x01f1aca8                M6502::zp_2_1_T1()
 .text._ZN5M65029zp_3_1_T1Ev
                0x01f1ace0       0x38 m6502.o
                0x01f1ace0                M6502::zp_3_1_T1()
 .text._ZN5M650210abs_2_3_T1Ev
                0x01f1ad18       0x38 m6502.o
                0x01f1ad18                M6502::abs_2_3_T1()
 .text._ZN5M650210abs_2_3_T2Ev
                0x01f1ad50       0x40 m6502.o
                0x01f1ad50                M6502::abs_2_3_T2()
 .text._ZN5M650210abs_3_2_T1Ev
                0x01f1ad90       0x38 m6502.o
                0x01f1ad90                M6502::abs_3_2_T1()
 .text._ZN5M650210abs_3_2_T2Ev
                0x01f1adc8       0x40 m6502.o
                0x01f1adc8                M6502::abs_3_2_T2()
 .text._ZN5M650210idx_2_4_T1Ev
                0x01f1ae08       0x38 m6502.o
                0x01f1ae08                M6502::idx_2_4_T1()
 .text._ZN5M650210idx_2_4_T2Ev
                0x01f1ae40       0x2c m6502.o
                0x01f1ae40                M6502::idx_2_4_T2()
 .text._ZN5M650210idx_2_4_T3Ev
                0x01f1ae6c       0x44 m6502.o
                0x01f1ae6c                M6502::idx_2_4_T3()
 .text._ZN5M650210idx_2_4_T4Ev
                0x01f1aeb0       0x38 m6502.o
                0x01f1aeb0                M6502::idx_2_4_T4()
 .text._ZN5M650210idx_3_3_T1Ev
                0x01f1aee8       0x38 m6502.o
                0x01f1aee8                M6502::idx_3_3_T1()
 .text._ZN5M650210idx_3_3_T2Ev
                0x01f1af20       0x2c m6502.o
                0x01f1af20                M6502::idx_3_3_T2()
 .text._ZN5M650210idx_3_3_T3Ev
                0x01f1af4c       0x44 m6502.o
                0x01f1af4c                M6502::idx_3_3_T3()
 .text._ZN5M650210idx_3_3_T4Ev
                0x01f1af90       0x38 m6502.o
                0x01f1af90                M6502::idx_3_3_T4()
 .text._ZN5M650212idx_Undoc_T1Ev
                0x01f1afc8       0x38 m6502.o
                0x01f1afc8                M6502::idx_Undoc_T1()
 .text._ZN5M650212idx_Undoc_T2Ev
                0x01f1b000       0x2c m6502.o
                0x01f1b000                M6502::idx_Undoc_T2()
 .text._ZN5M650212idx_Undoc_T3Ev
                0x01f1b02c       0x44 m6502.o
                0x01f1b02c                M6502::idx_Undoc_T3()
 .text._ZN5M650212idx_Undoc_T4Ev
                0x01f1b070       0x38 m6502.o
                0x01f1b070                M6502::idx_Undoc_T4()
 .text._ZN5M650212idx_Undoc_T5Ev
                0x01f1b0a8       0x30 m6502.o
                0x01f1b0a8                M6502::idx_Undoc_T5()
 .text._ZN5M650212idx_Undoc_T6Ev
                0x01f1b0d8       0x30 m6502.o
                0x01f1b0d8                M6502::idx_Undoc_T6()
 .text._ZN5M650211absx_2_5_T1Ev
                0x01f1b108       0x38 m6502.o
                0x01f1b108                M6502::absx_2_5_T1()
 .text._ZN5M650211absx_2_5_T2Ev
                0x01f1b140       0x40 m6502.o
                0x01f1b140                M6502::absx_2_5_T2()
 .text._ZN5M650211absx_3_4_T1Ev
                0x01f1b180       0x38 m6502.o
                0x01f1b180                M6502::absx_3_4_T1()
 .text._ZN5M650211absx_3_4_T2Ev
                0x01f1b1b8       0x40 m6502.o
                0x01f1b1b8                M6502::absx_3_4_T2()
 .text._ZN5M650211absx_3_4_T3Ev
                0x01f1b1f8       0x3c m6502.o
                0x01f1b1f8                M6502::absx_3_4_T3()
 .text._ZN5M650211absy_2_5_T1Ev
                0x01f1b234       0x38 m6502.o
                0x01f1b234                M6502::absy_2_5_T1()
 .text._ZN5M650211absy_2_5_T2Ev
                0x01f1b26c       0x40 m6502.o
                0x01f1b26c                M6502::absy_2_5_T2()
 .text._ZN5M650211absy_3_4_T1Ev
                0x01f1b2ac       0x38 m6502.o
                0x01f1b2ac                M6502::absy_3_4_T1()
 .text._ZN5M650211absy_3_4_T2Ev
                0x01f1b2e4       0x40 m6502.o
                0x01f1b2e4                M6502::absy_3_4_T2()
 .text._ZN5M650211absy_3_4_T3Ev
                0x01f1b324       0x3c m6502.o
                0x01f1b324                M6502::absy_3_4_T3()
 .text._ZN5M650210zpx_2_6_T1Ev
                0x01f1b360       0x38 m6502.o
                0x01f1b360                M6502::zpx_2_6_T1()
 .text._ZN5M650210zpx_2_6_T2Ev
                0x01f1b398       0x2c m6502.o
                0x01f1b398                M6502::zpx_2_6_T2()
 .text._ZN5M650210zpx_3_5_T1Ev
                0x01f1b3c4       0x38 m6502.o
                0x01f1b3c4                M6502::zpx_3_5_T1()
 .text._ZN5M650210zpx_3_5_T2Ev
                0x01f1b3fc       0x2c m6502.o
                0x01f1b3fc                M6502::zpx_3_5_T2()
 .text._ZN5M650210zpy_2_6_T1Ev
                0x01f1b428       0x38 m6502.o
                0x01f1b428                M6502::zpy_2_6_T1()
 .text._ZN5M650210zpy_2_6_T2Ev
                0x01f1b460       0x2c m6502.o
                0x01f1b460                M6502::zpy_2_6_T2()
 .text._ZN5M650210zpy_3_5_T1Ev
                0x01f1b48c       0x38 m6502.o
                0x01f1b48c                M6502::zpy_3_5_T1()
 .text._ZN5M650210zpy_3_5_T2Ev
                0x01f1b4c4       0x2c m6502.o
                0x01f1b4c4                M6502::zpy_3_5_T2()
 .text._ZN5M650210idy_2_7_T1Ev
                0x01f1b4f0       0x38 m6502.o
                0x01f1b4f0                M6502::idy_2_7_T1()
 .text._ZN5M650210idy_2_7_T2Ev
                0x01f1b528       0x38 m6502.o
                0x01f1b528                M6502::idy_2_7_T2()
 .text._ZN5M650210idy_2_7_T3Ev
                0x01f1b560       0x38 m6502.o
                0x01f1b560                M6502::idy_2_7_T3()
 .text._ZN5M650210idy_3_6_T1Ev
                0x01f1b598       0x38 m6502.o
                0x01f1b598                M6502::idy_3_6_T1()
 .text._ZN5M650210idy_3_6_T2Ev
                0x01f1b5d0       0x38 m6502.o
                0x01f1b5d0                M6502::idy_3_6_T2()
 .text._ZN5M650210idy_3_6_T3Ev
                0x01f1b608       0x38 m6502.o
                0x01f1b608                M6502::idy_3_6_T3()
 .text._ZN5M650210idy_3_6_T4Ev
                0x01f1b640       0x3c m6502.o
                0x01f1b640                M6502::idy_3_6_T4()
 .text._ZN5M650212idy_Undoc_T1Ev
                0x01f1b67c       0x38 m6502.o
                0x01f1b67c                M6502::idy_Undoc_T1()
 .text._ZN5M650212idy_Undoc_T2Ev
                0x01f1b6b4       0x38 m6502.o
                0x01f1b6b4                M6502::idy_Undoc_T2()
 .text._ZN5M650212idy_Undoc_T3Ev
                0x01f1b6ec       0x38 m6502.o
                0x01f1b6ec                M6502::idy_Undoc_T3()
 .text._ZN5M650212idy_Undoc_T4Ev
                0x01f1b724       0x3c m6502.o
                0x01f1b724                M6502::idy_Undoc_T4()
 .text._ZN5M650212idy_Undoc_T5Ev
                0x01f1b760       0x30 m6502.o
                0x01f1b760                M6502::idy_Undoc_T5()
 .text._ZN5M650212idy_Undoc_T6Ev
                0x01f1b790       0x30 m6502.o
                0x01f1b790                M6502::idy_Undoc_T6()
 .text._ZN5M65029zp_4_1_T1Ev
                0x01f1b7c0       0x38 m6502.o
                0x01f1b7c0                M6502::zp_4_1_T1()
 .text._ZN5M65029zp_4_1_T2Ev
                0x01f1b7f8       0x30 m6502.o
                0x01f1b7f8                M6502::zp_4_1_T2()
 .text._ZN5M65029zp_4_1_T3Ev
                0x01f1b828       0x30 m6502.o
                0x01f1b828                M6502::zp_4_1_T3()
 .text._ZN5M650210abs_4_2_T1Ev
                0x01f1b858       0x38 m6502.o
                0x01f1b858                M6502::abs_4_2_T1()
 .text._ZN5M650210abs_4_2_T2Ev
                0x01f1b890       0x40 m6502.o
                0x01f1b890                M6502::abs_4_2_T2()
 .text._ZN5M650210abs_4_2_T3Ev
                0x01f1b8d0       0x30 m6502.o
                0x01f1b8d0                M6502::abs_4_2_T3()
 .text._ZN5M650210abs_4_2_T4Ev
                0x01f1b900       0x30 m6502.o
                0x01f1b900                M6502::abs_4_2_T4()
 .text._ZN5M650210zpx_4_3_T1Ev
                0x01f1b930       0x38 m6502.o
                0x01f1b930                M6502::zpx_4_3_T1()
 .text._ZN5M650210zpx_4_3_T2Ev
                0x01f1b968       0x2c m6502.o
                0x01f1b968                M6502::zpx_4_3_T2()
 .text._ZN5M650210zpx_4_3_T3Ev
                0x01f1b994       0x40 m6502.o
                0x01f1b994                M6502::zpx_4_3_T3()
 .text._ZN5M650210zpx_4_3_T4Ev
                0x01f1b9d4       0x30 m6502.o
                0x01f1b9d4                M6502::zpx_4_3_T4()
 .text._ZN5M650211absx_4_4_T1Ev
                0x01f1ba04       0x38 m6502.o
                0x01f1ba04                M6502::absx_4_4_T1()
 .text._ZN5M650211absx_4_4_T2Ev
                0x01f1ba3c       0x40 m6502.o
                0x01f1ba3c                M6502::absx_4_4_T2()
 .text._ZN5M650211absx_4_4_T3Ev
                0x01f1ba7c       0x3c m6502.o
                0x01f1ba7c                M6502::absx_4_4_T3()
 .text._ZN5M650211absx_4_4_T4Ev
                0x01f1bab8       0x30 m6502.o
                0x01f1bab8                M6502::absx_4_4_T4()
 .text._ZN5M650211absx_4_4_T5Ev
                0x01f1bae8       0x30 m6502.o
                0x01f1bae8                M6502::absx_4_4_T5()
 .text._ZN5M650211absy_4_4_T1Ev
                0x01f1bb18       0x38 m6502.o
                0x01f1bb18                M6502::absy_4_4_T1()
 .text._ZN5M650211absy_4_4_T2Ev
                0x01f1bb50       0x40 m6502.o
                0x01f1bb50                M6502::absy_4_4_T2()
 .text._ZN5M650211absy_4_4_T3Ev
                0x01f1bb90       0x3c m6502.o
                0x01f1bb90                M6502::absy_4_4_T3()
 .text._ZN5M650211absy_4_4_T4Ev
                0x01f1bbcc       0x30 m6502.o
                0x01f1bbcc                M6502::absy_4_4_T4()
 .text._ZN5M650211absy_4_4_T5Ev
                0x01f1bbfc       0x30 m6502.o
                0x01f1bbfc                M6502::absy_4_4_T5()
 .text._ZN5M65029ph_5_1_T1Ev
                0x01f1bc2c       0x2c m6502.o
                0x01f1bc2c                M6502::ph_5_1_T1()
 .text._ZN5M65029pl_5_2_T1Ev
                0x01f1bc58       0x2c m6502.o
                0x01f1bc58                M6502::pl_5_2_T1()
 .text._ZN5M65029pl_5_2_T2Ev
                0x01f1bc84       0x30 m6502.o
                0x01f1bc84                M6502::pl_5_2_T2()
 .text._ZN5M650210jsr_5_3_T1Ev
                0x01f1bcb4       0x38 m6502.o
                0x01f1bcb4                M6502::jsr_5_3_T1()
 .text._ZN5M650210jsr_5_3_T2Ev
                0x01f1bcec       0x30 m6502.o
                0x01f1bcec                M6502::jsr_5_3_T2()
 .text._ZN5M650210jsr_5_3_T3Ev
                0x01f1bd1c       0x40 m6502.o
                0x01f1bd1c                M6502::jsr_5_3_T3()
 .text._ZN5M650210jsr_5_3_T4Ev
                0x01f1bd5c       0x3c m6502.o
                0x01f1bd5c                M6502::jsr_5_3_T4()
 .text._ZN5M650210rti_5_5_T1Ev
                0x01f1bd98       0x34 m6502.o
                0x01f1bd98                M6502::rti_5_5_T1()
 .text._ZN5M650210rti_5_5_T2Ev
                0x01f1bdcc       0x30 m6502.o
                0x01f1bdcc                M6502::rti_5_5_T2()
 .text._ZN5M650210rti_5_5_T3Ev
                0x01f1bdfc       0x40 m6502.o
                0x01f1bdfc                M6502::rti_5_5_T3()
 .text._ZN5M650210rti_5_5_T4Ev
                0x01f1be3c       0x40 m6502.o
                0x01f1be3c                M6502::rti_5_5_T4()
 .text._ZN5M650211abs5_6_1_T1Ev
                0x01f1be7c       0x38 m6502.o
                0x01f1be7c                M6502::abs5_6_1_T1()
 .text._ZN5M650211abs5_6_2_T1Ev
                0x01f1beb4       0x38 m6502.o
                0x01f1beb4                M6502::abs5_6_2_T1()
 .text._ZN5M650211abs5_6_2_T2Ev
                0x01f1beec       0x40 m6502.o
                0x01f1beec                M6502::abs5_6_2_T2()
 .text._ZN5M650211abs5_6_2_T3Ev
                0x01f1bf2c       0x38 m6502.o
                0x01f1bf2c                M6502::abs5_6_2_T3()
 .text._ZN5M650210rts_5_7_T1Ev
                0x01f1bf64       0x34 m6502.o
                0x01f1bf64                M6502::rts_5_7_T1()
 .text._ZN5M650210rts_5_7_T2Ev
                0x01f1bf98       0x30 m6502.o
                0x01f1bf98                M6502::rts_5_7_T2()
 .text._ZN5M650210rts_5_7_T3Ev
                0x01f1bfc8       0x40 m6502.o
                0x01f1bfc8                M6502::rts_5_7_T3()
 .text._ZN5M650210rts_5_7_T4Ev
                0x01f1c008       0x48 m6502.o
                0x01f1c008                M6502::rts_5_7_T4()
 .text._ZN5M650210brk_5_4_T1Ev
                0x01f1c050       0x38 m6502.o
                0x01f1c050                M6502::brk_5_4_T1()
 .text._ZN5M650210brk_5_4_T2Ev
                0x01f1c088       0x40 m6502.o
                0x01f1c088                M6502::brk_5_4_T2()
 .text._ZN5M650210brk_5_4_T3Ev
                0x01f1c0c8       0x3c m6502.o
                0x01f1c0c8                M6502::brk_5_4_T3()
 .text._ZN5M650210brk_5_4_T5Ev
                0x01f1c104       0x30 m6502.o
                0x01f1c104                M6502::brk_5_4_T5()
 .text._ZN5M65028Reset_T1Ev
                0x01f1c134       0x2c m6502.o
                0x01f1c134                M6502::Reset_T1()
 .text._ZN5M65028Reset_T2Ev
                0x01f1c160       0x38 m6502.o
                0x01f1c160                M6502::Reset_T2()
 .text._ZN5M65028Reset_T3Ev
                0x01f1c198       0x38 m6502.o
                0x01f1c198                M6502::Reset_T3()
 .text._ZN5M65028Reset_T4Ev
                0x01f1c1d0       0x44 m6502.o
                0x01f1c1d0                M6502::Reset_T4()
 .text._ZN5M65028Reset_T5Ev
                0x01f1c214       0x30 m6502.o
                0x01f1c214                M6502::Reset_T5()
 .text._ZN5M65028Reset_T6Ev
                0x01f1c244       0x38 m6502.o
                0x01f1c244                M6502::Reset_T6()
 .text._ZN5M65026IRQ_T1Ev
                0x01f1c27c       0x2c m6502.o
                0x01f1c27c                M6502::IRQ_T1()
 .text._ZN5M65026IRQ_T2Ev
                0x01f1c2a8       0x40 m6502.o
                0x01f1c2a8                M6502::IRQ_T2()
 .text._ZN5M65026IRQ_T3Ev
                0x01f1c2e8       0x3c m6502.o
                0x01f1c2e8                M6502::IRQ_T3()
 .text._ZN5M65026IRQ_T5Ev
                0x01f1c324       0x30 m6502.o
                0x01f1c324                M6502::IRQ_T5()
 .text._ZN5M65026IRQ_T6Ev
                0x01f1c354       0x44 m6502.o
                0x01f1c354                M6502::IRQ_T6()
 .text._ZN5M65023ADCEv
                0x01f1c398      0x12c m6502.o
                0x01f1c398                M6502::ADC()
 .text._ZN5M65023ARREv
                0x01f1c4c4      0x10c m6502.o
                0x01f1c4c4                M6502::ARR()
 .text._ZN5M65023SBCEv
                0x01f1c5d0      0x11c m6502.o
                0x01f1c5d0                M6502::SBC()
 .text._ZN5M650210idy_2_7_T4Ev
                0x01f1c6ec       0x9c m6502.o
                0x01f1c6ec                M6502::idy_2_7_T4()
 .text._ZN5M650210rel_5_8_T2Ev
                0x01f1c788       0x5c m6502.o
                0x01f1c788                M6502::rel_5_8_T2()
 .text._ZN5M65026IRQ_T4Ev
                0x01f1c7e4       0x48 m6502.o
                0x01f1c7e4                M6502::IRQ_T4()
 .text._ZN5M650216InstructionFetchEv
                0x01f1c82c       0x94 m6502.o
                0x01f1c82c                M6502::InstructionFetch()
 .text._ZN5M650219InstructionFetchIRQEv
                0x01f1c8c0       0x58 m6502.o
                0x01f1c8c0                M6502::InstructionFetchIRQ()
 .text._ZN5M65023BMIEv
                0x01f1c918       0x78 m6502.o
                0x01f1c918                M6502::BMI()
 .text._ZN5M650210brk_5_4_T4Ev
                0x01f1c990       0x90 m6502.o
                0x01f1c990                M6502::brk_5_4_T4()
 .text._ZN5M65023BPLEv
                0x01f1ca20       0x78 m6502.o
                0x01f1ca20                M6502::BPL()
 .text._ZN5M65023BCSEv
                0x01f1ca98       0x74 m6502.o
                0x01f1ca98                M6502::BCS()
 .text._ZN5M65023BEQEv
                0x01f1cb0c       0x74 m6502.o
                0x01f1cb0c                M6502::BEQ()
 .text._ZN5M65023BCCEv
                0x01f1cb80       0x74 m6502.o
                0x01f1cb80                M6502::BCC()
 .text._ZN5M65023BVCEv
                0x01f1cbf4       0x74 m6502.o
                0x01f1cbf4                M6502::BVC()
 .text._ZN5M65023BNEEv
                0x01f1cc68       0x74 m6502.o
                0x01f1cc68                M6502::BNE()
 .text._ZN5M65023BVSEv
                0x01f1ccdc       0x74 m6502.o
                0x01f1ccdc                M6502::BVS()
 .text._ZN5M65029zp_3_1_T2Ev
                0x01f1cd50       0x44 m6502.o
                0x01f1cd50                M6502::zp_3_1_T2()
 .text._ZN5M650210abs_3_2_T3Ev
                0x01f1cd94       0x44 m6502.o
                0x01f1cd94                M6502::abs_3_2_T3()
 .text._ZN5M650210idx_3_3_T5Ev
                0x01f1cdd8       0x44 m6502.o
                0x01f1cdd8                M6502::idx_3_3_T5()
 .text._ZN5M650212idx_Undoc_T7Ev
                0x01f1ce1c       0x44 m6502.o
                0x01f1ce1c                M6502::idx_Undoc_T7()
 .text._ZN5M650211absx_3_4_T4Ev
                0x01f1ce60       0x44 m6502.o
                0x01f1ce60                M6502::absx_3_4_T4()
 .text._ZN5M650211absy_3_4_T4Ev
                0x01f1cea4       0x44 m6502.o
                0x01f1cea4                M6502::absy_3_4_T4()
 .text._ZN5M650210idy_3_6_T5Ev
                0x01f1cee8       0x44 m6502.o
                0x01f1cee8                M6502::idy_3_6_T5()
 .text._ZN5M650212idy_Undoc_T7Ev
                0x01f1cf2c       0x44 m6502.o
                0x01f1cf2c                M6502::idy_Undoc_T7()
 .text._ZN5M65029zp_4_1_T4Ev
                0x01f1cf70       0x44 m6502.o
                0x01f1cf70                M6502::zp_4_1_T4()
 .text._ZN5M650210abs_4_2_T5Ev
                0x01f1cfb4       0x44 m6502.o
                0x01f1cfb4                M6502::abs_4_2_T5()
 .text._ZN5M650210zpx_4_3_T5Ev
                0x01f1cff8       0x44 m6502.o
                0x01f1cff8                M6502::zpx_4_3_T5()
 .text._ZN5M650211absx_4_4_T6Ev
                0x01f1d03c       0x44 m6502.o
                0x01f1d03c                M6502::absx_4_4_T6()
 .text._ZN5M650211absy_4_4_T6Ev
                0x01f1d080       0x44 m6502.o
                0x01f1d080                M6502::absy_4_4_T6()
 .text._ZN5M65029ph_5_1_T2Ev
                0x01f1d0c4       0x44 m6502.o
                0x01f1d0c4                M6502::ph_5_1_T2()
 .text._ZN5M65029pl_5_2_T3Ev
                0x01f1d108       0x44 m6502.o
                0x01f1d108                M6502::pl_5_2_T3()
 .text._ZN5M650210zpy_3_5_T3Ev
                0x01f1d14c       0x58 m6502.o
                0x01f1d14c                M6502::zpy_3_5_T3()
 .text._ZN5M650210zpx_3_5_T3Ev
                0x01f1d1a4       0x58 m6502.o
                0x01f1d1a4                M6502::zpx_3_5_T3()
 .text._ZN5M65029sb_jam_T1Ev
                0x01f1d1fc       0x50 m6502.o
                0x01f1d1fc                M6502::sb_jam_T1()
 .text._ZN5M650210idy_2_7_T5Ev
                0x01f1d24c       0x54 m6502.o
                0x01f1d24c                M6502::idy_2_7_T5()
 .text._ZN5M650211absx_2_5_T4Ev
                0x01f1d2a0       0x54 m6502.o
                0x01f1d2a0                M6502::absx_2_5_T4()
 .text._ZN5M650211absy_2_5_T4Ev
                0x01f1d2f4       0x54 m6502.o
                0x01f1d2f4                M6502::absy_2_5_T4()
 .text._ZN5M65029zp_2_1_T2Ev
                0x01f1d348       0x54 m6502.o
                0x01f1d348                M6502::zp_2_1_T2()
 .text._ZN5M650210abs_2_3_T3Ev
                0x01f1d39c       0x54 m6502.o
                0x01f1d39c                M6502::abs_2_3_T3()
 .text._ZN5M650210idx_2_4_T5Ev
                0x01f1d3f0       0x54 m6502.o
                0x01f1d3f0                M6502::idx_2_4_T5()
 .text._ZN5M65027sb_1_T1Ev
                0x01f1d444       0x58 m6502.o
                0x01f1d444                M6502::sb_1_T1()
 .text._ZN5M650210rts_5_7_T5Ev
                0x01f1d49c       0x5c m6502.o
                0x01f1d49c                M6502::rts_5_7_T5()
 .text._ZN5M650210imm_2_1_T1Ev
                0x01f1d4f8       0x5c m6502.o
                0x01f1d4f8                M6502::imm_2_1_T1()
 .text._ZN5M650211abs5_6_2_T4Ev
                0x01f1d554       0x5c m6502.o
                0x01f1d554                M6502::abs5_6_2_T4()
 .text._ZN5M650210zpy_2_6_T3Ev
                0x01f1d5b0       0x64 m6502.o
                0x01f1d5b0                M6502::zpy_2_6_T3()
 .text._ZN5M650210zpx_2_6_T3Ev
                0x01f1d614       0x64 m6502.o
                0x01f1d614                M6502::zpx_2_6_T3()
 .text._ZN5M650211abs5_6_1_T2Ev
                0x01f1d678       0x64 m6502.o
                0x01f1d678                M6502::abs5_6_1_T2()
 .text._ZN5M650210brk_5_4_T6Ev
                0x01f1d6dc       0x68 m6502.o
                0x01f1d6dc                M6502::brk_5_4_T6()
 .text._ZN5M650210jsr_5_3_T5Ev
                0x01f1d744       0x6c m6502.o
                0x01f1d744                M6502::jsr_5_3_T5()
 .text._ZN5M650210rti_5_5_T5Ev
                0x01f1d7b0       0x6c m6502.o
                0x01f1d7b0                M6502::rti_5_5_T5()
 .text._ZN5M650211absx_2_5_T3Ev
                0x01f1d81c       0x9c m6502.o
                0x01f1d81c                M6502::absx_2_5_T3()
 .text._ZN5M650211absy_2_5_T3Ev
                0x01f1d8b8       0x9c m6502.o
                0x01f1d8b8                M6502::absy_2_5_T3()
 .text._ZN5M65023RRAEv
                0x01f1d954      0x19c m6502.o
                0x01f1d954                M6502::RRA()
 .text._ZN5M65023ISBEv
                0x01f1daf0      0x17c m6502.o
                0x01f1daf0                M6502::ISB()
 .text._ZN5M65024StepEv
                0x01f1dc6c       0x88 m6502.o
                0x01f1dc6c                M6502::Step()
 .text._ZN5M65025ResetEv
                0x01f1dcf4       0x44 m6502.o
                0x01f1dcf4                M6502::Reset()
 .text          0x01f1dd38        0x0 m6522.o
 .text._ZN5m6522C2Ev
                0x01f1dd38       0xe4 m6522.o
                0x01f1dd38                m6522::m6522()
                0x01f1dd38                m6522::m6522()
 .text._ZN5m65225ResetEv
                0x01f1de1c       0xc4 m6522.o
                0x01f1de1c                m6522::Reset()
 .text._ZN5m65228InputCA1Eb
                0x01f1dee0       0xd0 m6522.o
                0x01f1dee0                m6522::InputCA1(bool)
 .text._ZN5m65228InputCA2Eb
                0x01f1dfb0       0xa0 m6522.o
                0x01f1dfb0                m6522::InputCA2(bool)
 .text._ZN5m65228InputCB1Eb
                0x01f1e050       0xd0 m6522.o
                0x01f1e050                m6522::InputCB1(bool)
 .text._ZN5m65228InputCB2Eb
                0x01f1e120       0xa0 m6522.o
                0x01f1e120                m6522::InputCB2(bool)
 .text._ZN5m65227ExecuteEv
                0x01f1e1c0      0x894 m6522.o
                0x01f1e1c0                m6522::Execute()
 .text._ZN5m65224ReadEj
                0x01f1ea54      0x3d0 m6522.o
                0x01f1ea54                m6522::Read(unsigned int)
 .text._ZN5m65224PeekEj
                0x01f1ee24      0x134 m6522.o
                0x01f1ee24                m6522::Peek(unsigned int)
 .text._ZN5m65225WriteEjh
                0x01f1ef58      0x654 m6522.o
                0x01f1ef58                m6522::Write(unsigned int, unsigned char)
 .text          0x01f1f5ac        0x0 drive.o
 .text._ZN5DriveC2Ev
                0x01f1f5ac       0xec drive.o
                0x01f1f5ac                Drive::Drive()
                0x01f1f5ac                Drive::Drive()
 .text._ZN5Drive5ResetEv
                0x01f1f698       0xd8 drive.o
                0x01f1f698                Drive::Reset()
 .text._ZN5Drive6InsertEP9DiskImage
                0x01f1f770       0x10 drive.o
                0x01f1f770                Drive::Insert(DiskImage*)
 .text._ZN5Drive5EjectEv
                0x01f1f780       0x14 drive.o
                0x01f1f780                Drive::Eject()
 .text._ZN5Drive9DumpTrackEj
                0x01f1f794       0x10 drive.o
                0x01f1f794                Drive::DumpTrack(unsigned int)
 .text._ZN5Drive9OnPortOutEPvh
                0x01f1f7a4       0xd4 drive.o
                0x01f1f7a4                Drive::OnPortOut(void*, unsigned char)
 .text._ZN5Drive22AdvanceSectorPositionRERi
                0x01f1f878       0x30 drive.o
                0x01f1f878                Drive::AdvanceSectorPositionR(int&)
 .text._ZN5Drive22AdvanceSectorPositionWERi
                0x01f1f8a8       0x34 drive.o
                0x01f1f8a8                Drive::AdvanceSectorPositionW(int&)
 .text._ZN5Drive10GetNextBitEv
                0x01f1f8dc       0x50 drive.o
                0x01f1f8dc                Drive::GetNextBit()
 .text._ZN5Drive10SetNextBitEb
                0x01f1f92c       0xb8 drive.o
                0x01f1f92c                Drive::SetNextBit(bool)
 .text._ZN5Drive6UpdateEv
                0x01f1f9e4      0x3c8 drive.o
                0x01f1f9e4                Drive::Update()
 .text          0x01f1fdac        0x0 gcr.o
 .text._Z9find_syncPPhS_
                0x01f1fdac       0xb8 gcr.o
                0x01f1fdac                find_sync(unsigned char**, unsigned char*)
 .text._Z21convert_4bytes_to_GCRPhS_
                0x01f1fe64      0x100 gcr.o
                0x01f1fe64                convert_4bytes_to_GCR(unsigned char*, unsigned char*)
 .text._Z23convert_4bytes_from_GCRPhS_
                0x01f1ff64      0x13c gcr.o
                0x01f1ff64                convert_4bytes_from_GCR(unsigned char*, unsigned char*)
 .text._Z18convert_GCR_sectorPhS_S_iiS_.part.1
                0x01f200a0      0xda0 gcr.o
 .text._Z10extract_idPhS_
                0x01f20e40       0xd8 gcr.o
                0x01f20e40                extract_id(unsigned char*, unsigned char*)
 .text._Z19extract_cosmetic_idPhS_
                0x01f20f18       0x60 gcr.o
                0x01f20f18                extract_cosmetic_id(unsigned char*, unsigned char*)
 .text._Z18convert_GCR_sectorPhS_S_iiS_
                0x01f20f78       0x34 gcr.o
                0x01f20f78                convert_GCR_sector(unsigned char*, unsigned char*, unsigned char*, int, int, unsigned char*)
 .text._Z21convert_sector_to_GCRPhS_iiS_i
                0x01f20fac      0x464 gcr.o
                0x01f20fac                convert_sector_to_GCR(unsigned char*, unsigned char*, int, int, unsigned char*, int)
 .text._Z16find_track_cyclePPhS0_ii
                0x01f21410      0x29c gcr.o
                0x01f21410                find_track_cycle(unsigned char**, unsigned char**, int, int)
 .text._Z23find_nondos_track_cyclePPhS0_ii
                0x01f216ac      0x144 gcr.o
                0x01f216ac                find_nondos_track_cycle(unsigned char**, unsigned char**, int, int)
 .text._Z16check_valid_dataPhi
                0x01f217f0       0x7c gcr.o
                0x01f217f0                check_valid_data(unsigned char*, int)
 .text._Z12find_sector0PhiPj
                0x01f2186c      0x164 gcr.o
                0x01f2186c                find_sector0(unsigned char*, int, unsigned int*)
 .text._Z15find_sector_gapPhiPj
                0x01f219d0      0x134 gcr.o
                0x01f219d0                find_sector_gap(unsigned char*, int, unsigned int*)
 .text._Z15check_formattedPh
                0x01f21b04       0xd8 gcr.o
                0x01f21b04                check_formatted(unsigned char*)
 .text._Z17extract_GCR_trackPhS_Piijj
                0x01f21bdc      0x3c8 gcr.o
                0x01f21bdc                extract_GCR_track(unsigned char*, unsigned char*, int*, int, unsigned int, unsigned int)
 .text._Z10strip_runsPhiih
                0x01f21fa4       0x8c gcr.o
                0x01f21fa4                strip_runs(unsigned char*, int, int, unsigned char)
 .text._Z11reduce_runsPhiiih
                0x01f22030       0xc0 gcr.o
                0x01f22030                reduce_runs(unsigned char*, int, int, int, unsigned char)
 .text._Z16check_sync_flagsPhii
                0x01f220f0      0x3cc gcr.o
                0x01f220f0                check_sync_flags(unsigned char*, int, int)
 .text._Z14compare_tracksPhS_iiiPc
                0x01f224bc      0x2ec gcr.o
                0x01f224bc                compare_tracks(unsigned char*, unsigned char*, int, int, int, char*)
 .text._Z15compare_sectorsPhS_iiS_S_iPc
                0x01f227a8      0x8f4 gcr.o
                0x01f227a8                compare_sectors(unsigned char*, unsigned char*, int, int, unsigned char*, unsigned char*, int, char*)
 .text._Z12check_errorsPhiiS_Pc
                0x01f2309c      0x160 gcr.o
                0x01f2309c                check_errors(unsigned char*, int, int, unsigned char*, char*)
 .text._Z11check_emptyPhiiS_Pc
                0x01f231fc      0x130 gcr.o
                0x01f231fc                check_empty(unsigned char*, int, int, unsigned char*, char*)
 .text._Z13replace_bytesPhihh
                0x01f2332c       0x3c gcr.o
                0x01f2332c                replace_bytes(unsigned char*, int, unsigned char, unsigned char)
 .text._Z10is_bad_gcrPhjj
                0x01f23368       0xb0 gcr.o
                0x01f23368                is_bad_gcr(unsigned char*, unsigned int, unsigned int)
 .text._Z13check_bad_gcrPhii
                0x01f23418      0x38c gcr.o
                0x01f23418                check_bad_gcr(unsigned char*, int, int)
 .text          0x01f237a4        0x0 prot.o
 .text._Z12shift_bufferPhii
                0x01f237a4       0x74 prot.o
                0x01f237a4                shift_buffer(unsigned char*, int, int)
 .text._Z10align_vmaxPhi
                0x01f23818       0x8c prot.o
                0x01f23818                align_vmax(unsigned char*, int)
 .text._Z8auto_gapPhi
                0x01f238a4       0x7c prot.o
                0x01f238a4                auto_gap(unsigned char*, int)
 .text._Z13find_weak_gapPhi
                0x01f23920       0x84 prot.o
                0x01f23920                find_weak_gap(unsigned char*, int)
 .text._Z14find_long_syncPhi
                0x01f239a4       0x74 prot.o
                0x01f239a4                find_long_sync(unsigned char*, int)
 .text          0x01f23a18        0x0 lz.o
 .text.LZ_Compress
                0x01f23a18      0x3f0 lz.o
                0x01f23a18                LZ_Compress
 .text.LZ_CompressFast
                0x01f23e08      0x654 lz.o
                0x01f23e08                LZ_CompressFast
 .text.LZ_Uncompress
                0x01f2445c      0x4e8 lz.o
                0x01f2445c                LZ_Uncompress
 .text          0x01f24944        0x0 emmc.o
 .text._ZN11CEMMCDeviceC2Ev
                0x01f24944       0x14 emmc.o
                0x01f24944                CEMMCDevice::CEMMCDevice()
                0x01f24944                CEMMCDevice::CEMMCDevice()
 .text._ZN11CEMMCDeviceD2Ev
                0x01f24958        0x4 emmc.o
                0x01f24958                CEMMCDevice::~CEMMCDevice()
                0x01f24958                CEMMCDevice::~CEMMCDevice()
 .text._ZN11CEMMCDevice4SeekEy
                0x01f2495c       0x10 emmc.o
                0x01f2495c                CEMMCDevice::Seek(unsigned long long)
 .text._ZN11CEMMCDevice7PowerOnEv
                0x01f2496c       0x48 emmc.o
                0x01f2496c                CEMMCDevice::PowerOn()
 .text._ZN11CEMMCDevice8PowerOffEv
                0x01f249b4       0x18 emmc.o
                0x01f249b4                CEMMCDevice::PowerOff()
 .text._ZN11CEMMCDevice15GetClockDividerEjj
                0x01f249cc       0xb4 emmc.o
                0x01f249cc                CEMMCDevice::GetClockDivider(unsigned int, unsigned int)
 .text._ZN11CEMMCDevice15SwitchClockRateEjj
                0x01f24a80      0x1b8 emmc.o
                0x01f24a80                CEMMCDevice::SwitchClockRate(unsigned int, unsigned int)
 .text._ZN11CEMMCDevice8ResetCmdEv
                0x01f24c38       0x84 emmc.o
                0x01f24c38                CEMMCDevice::ResetCmd()
 .text._ZN11CEMMCDevice8ResetDatEv
                0x01f24cbc       0x84 emmc.o
                0x01f24cbc                CEMMCDevice::ResetDat()
 .text._ZN11CEMMCDevice15IssueCommandIntEjji
                0x01f24d40      0x318 emmc.o
                0x01f24d40                CEMMCDevice::IssueCommandInt(unsigned int, unsigned int, int)
 .text._ZN11CEMMCDevice19HandleCardInterruptEv
                0x01f25058       0x24 emmc.o
                0x01f25058                CEMMCDevice::HandleCardInterrupt()
 .text._ZN11CEMMCDevice16HandleInterruptsEv
                0x01f2507c      0x19c emmc.o
                0x01f2507c                CEMMCDevice::HandleInterrupts()
 .text._ZN11CEMMCDevice12IssueCommandEjji.constprop.1
                0x01f25218      0x110 emmc.o
 .text._ZN11CEMMCDevice12IssueCommandEjji
                0x01f25328      0x11c emmc.o
                0x01f25328                CEMMCDevice::IssueCommand(unsigned int, unsigned int, int)
 .text._ZN11CEMMCDevice9CardResetEv
                0x01f25444      0xb14 emmc.o
                0x01f25444                CEMMCDevice::CardReset()
 .text._ZN11CEMMCDevice10InitializeEv
                0x01f25f58       0x74 emmc.o
                0x01f25f58                CEMMCDevice::Initialize()
 .text._ZN11CEMMCDevice14EnsureDataModeEv
                0x01f25fcc      0x2c0 emmc.o
                0x01f25fcc                CEMMCDevice::EnsureDataMode()
 .text._ZN11CEMMCDevice13DoDataCommandEiPhjj
                0x01f2628c      0x180 emmc.o
                0x01f2628c                CEMMCDevice::DoDataCommand(int, unsigned char*, unsigned int, unsigned int)
 .text._ZN11CEMMCDevice4ReadEPvj
                0x01f2640c       0x90 emmc.o
                0x01f2640c                CEMMCDevice::Read(void*, unsigned int)
 .text._ZN11CEMMCDevice5WriteEPKvj
                0x01f2649c       0x94 emmc.o
                0x01f2649c                CEMMCDevice::Write(void const*, unsigned int)
 .text._ZN11CEMMCDevice6DoReadEPhjj
                0x01f26530       0x58 emmc.o
                0x01f26530                CEMMCDevice::DoRead(unsigned char*, unsigned int, unsigned int)
 .text._ZN11CEMMCDevice7DoWriteEPhjj
                0x01f26588       0x5c emmc.o
                0x01f26588                CEMMCDevice::DoWrite(unsigned char*, unsigned int, unsigned int)
 .text._ZN11CEMMCDevice11TimeoutWaitEjjij
                0x01f265e4       0x8c emmc.o
                0x01f265e4                CEMMCDevice::TimeoutWait(unsigned int, unsigned int, int, unsigned int)
 .text          0x01f26670        0x0 diskio.o
 .text.disk_setEMM
                0x01f26670       0x10 diskio.o
                0x01f26670                disk_setEMM
 .text._Z12sd_card_initPP12block_device
                0x01f26680        0x8 diskio.o
                0x01f26680                sd_card_init(block_device**)
 .text._Z7sd_readPhjm
                0x01f26688       0x1c diskio.o
                0x01f26688                sd_read(unsigned char*, unsigned int, unsigned long)
 .text._Z8sd_writePhjm
                0x01f266a4       0x1c diskio.o
                0x01f266a4                sd_write(unsigned char*, unsigned int, unsigned long)
 .text.disk_status
                0x01f266c0        0x8 diskio.o
                0x01f266c0                disk_status
 .text.disk_initialize
                0x01f266c8        0x8 diskio.o
                0x01f266c8                disk_initialize
 .text.disk_read
                0x01f266d0       0x78 diskio.o
                0x01f266d0                disk_read
 .text.disk_write
                0x01f26748       0x78 diskio.o
                0x01f26748                disk_write
 .text.disk_ioctl
                0x01f267c0        0x8 diskio.o
                0x01f267c0                disk_ioctl
 .text          0x01f267c8        0x0 options.o
 .text._ZN10TextParser14SkipWhiteSpaceEv
                0x01f267c8       0x40 options.o
                0x01f267c8                TextParser::SkipWhiteSpace()
 .text._ZN10TextParser12ParseCommentEv
                0x01f26808      0x14c options.o
                0x01f26808                TextParser::ParseComment()
 .text._ZN10TextParser8GetTokenEb
                0x01f26954       0xd8 options.o
                0x01f26954                TextParser::GetToken(bool)
 .text._ZN7OptionsC2Ev
                0x01f26a2c       0x5c options.o
                0x01f26a2c                Options::Options()
                0x01f26a2c                Options::Options()
 .text._ZN7Options7ProcessEPc
                0x01f26a88      0xb28 options.o
                0x01f26a88                Options::Process(char*)
 .text._ZN7Options10GetDecimalEPc
                0x01f275b0       0x94 options.o
                0x01f275b0                Options::GetDecimal(char*)
 .text._ZNK7Options10GetRomNameEi
                0x01f27644       0x6c options.o
                0x01f27644                Options::GetRomName(int) const
 .text          0x01f276b0        0x0 Screen.o
 .text._ZN6Screen11PlotPixel32Ejj
                0x01f276b0        0xc Screen.o
                0x01f276b0                Screen::PlotPixel32(unsigned int, unsigned int)
 .text._ZN6Screen11PlotPixel24Ejj
                0x01f276bc       0x34 Screen.o
                0x01f276bc                Screen::PlotPixel24(unsigned int, unsigned int)
 .text._ZN6Screen11PlotPixel16Ejj
                0x01f276f0       0x28 Screen.o
                0x01f276f0                Screen::PlotPixel16(unsigned int, unsigned int)
 .text._ZN6Screen10PlotPixel8Ejj
                0x01f27718       0x10 Screen.o
                0x01f27718                Screen::PlotPixel8(unsigned int, unsigned int)
 .text._ZL19stbi__vertical_flipPviii
                0x01f27728       0xdc Screen.o
 .text._ZL10stbi__get8P13stbi__context
                0x01f27804       0x84 Screen.o
 .text._ZN6Screen9WriteCharEbjjhj.part.18
                0x01f27888      0x408 Screen.o
 .text._ZL26stbi__gif_parse_colortableP13stbi__contextPA4_hii
                0x01f27c90      0x194 Screen.o
 .text._ZL20stbi__zbuild_huffmanP14stbi__zhuffmanPKhi
                0x01f27e24      0x60c Screen.o
 .text._ZL27stbi__compute_huffman_codesP10stbi__zbuf
                0x01f28430      0xc60 Screen.o
 .text._ZL16stbi__parse_zlibP10stbi__zbufi
                0x01f29090     0x1b60 Screen.o
 .text._ZL13stbi__get16leP13stbi__context
                0x01f2abf0      0x104 Screen.o
 .text._ZL13stbi__get16beP13stbi__context
                0x01f2acf4      0x108 Screen.o
 .text._ZL13stbi__get32beP13stbi__context
                0x01f2adfc      0x208 Screen.o
 .text._ZL20stbi__convert_formatPhiijj.part.9
                0x01f2b004     0x2278 Screen.o
 .text._ZL26stbi__create_png_image_rawP9stbi__pngPhmimmii.isra.13
                0x01f2d27c     0x41e0 Screen.o
 .text._ZL18stbi__out_gif_codeP9stbi__gift
                0x01f3145c      0x3e4 Screen.o
 .text._ZL20stbi__parse_png_fileP9stbi__pngii.constprop.20
                0x01f31840      0xce0 Screen.o
 .text._ZL20stbi__parse_png_fileP9stbi__pngii
                0x01f32520     0x1968 Screen.o
 .text._ZL16stbi__gif_headerP13stbi__contextP9stbi__gifPii
                0x01f33e88      0x4d4 Screen.o
 .text._ZL15stbi__load_mainP13stbi__contextPiS1_S1_iP17stbi__result_infoi.isra.15
                0x01f3435c     0x35bc Screen.o
 .text.stbi_failure_reason
                0x01f37918       0x10 Screen.o
                0x01f37918                stbi_failure_reason
 .text.stbi_image_free
                0x01f37928        0x4 Screen.o
                0x01f37928                stbi_image_free
 .text.stbi_set_flip_vertically_on_load
                0x01f3792c       0x10 Screen.o
                0x01f3792c                stbi_set_flip_vertically_on_load
 .text.stbi_load_16_from_memory
                0x01f3793c      0x42c Screen.o
                0x01f3793c                stbi_load_16_from_memory
 .text.stbi_load_16_from_callbacks
                0x01f37d68      0x468 Screen.o
                0x01f37d68                stbi_load_16_from_callbacks
 .text.stbi_load_from_memory
                0x01f381d0      0x420 Screen.o
                0x01f381d0                stbi_load_from_memory
 .text.stbi_load_from_callbacks
                0x01f385f0      0x45c Screen.o
                0x01f385f0                stbi_load_from_callbacks
 .text.stbi_is_hdr_from_memory
                0x01f38a4c        0x8 Screen.o
                0x01f38a4c                stbi_is_hdr_from_memory
 .text.stbi_is_hdr_from_callbacks
                0x01f38a54        0x8 Screen.o
                0x01f38a54                stbi_is_hdr_from_callbacks
 .text._Z21stbi_hdr_to_ldr_gammaf
                0x01f38a5c        0x4 Screen.o
                0x01f38a5c                stbi_hdr_to_ldr_gamma(float)
 .text._Z21stbi_hdr_to_ldr_scalef
                0x01f38a60        0x4 Screen.o
                0x01f38a60                stbi_hdr_to_ldr_scale(float)
 .text.stbi_zlib_decode_malloc_guesssize
                0x01f38a64       0x98 Screen.o
                0x01f38a64                stbi_zlib_decode_malloc_guesssize
 .text.stbi_zlib_decode_malloc
                0x01f38afc        0xc Screen.o
                0x01f38afc                stbi_zlib_decode_malloc
 .text.stbi_zlib_decode_malloc_guesssize_headerflag
                0x01f38b08       0x9c Screen.o
                0x01f38b08                stbi_zlib_decode_malloc_guesssize_headerflag
 .text.stbi_zlib_decode_buffer
                0x01f38ba4       0x5c Screen.o
                0x01f38ba4                stbi_zlib_decode_buffer
 .text.stbi_zlib_decode_noheader_malloc
                0x01f38c00       0x94 Screen.o
                0x01f38c00                stbi_zlib_decode_noheader_malloc
 .text.stbi_zlib_decode_noheader_buffer
                0x01f38c94       0x5c Screen.o
                0x01f38c94                stbi_zlib_decode_noheader_buffer
 .text.stbi_set_unpremultiply_on_load
                0x01f38cf0       0x10 Screen.o
                0x01f38cf0                stbi_set_unpremultiply_on_load
 .text.stbi_convert_iphone_png_to_rgb
                0x01f38d00       0x10 Screen.o
                0x01f38d00                stbi_convert_iphone_png_to_rgb
 .text.stbi_info_from_memory
                0x01f38d10      0x524 Screen.o
                0x01f38d10                stbi_info_from_memory
 .text.stbi_info_from_callbacks
                0x01f39234      0x164 Screen.o
                0x01f39234                stbi_info_from_callbacks
 .text._ZN6Screen4OpenEjjj
                0x01f39398      0x1ac Screen.o
                0x01f39398                Screen::Open(unsigned int, unsigned int, unsigned int)
 .text._ZN6Screen8ClipRectERjS0_S0_S0_
                0x01f39544       0x4c Screen.o
                0x01f39544                Screen::ClipRect(unsigned int&, unsigned int&, unsigned int&, unsigned int&)
 .text._ZN6Screen9ClearAreaEjjjjj
                0x01f39590       0xa8 Screen.o
                0x01f39590                Screen::ClearArea(unsigned int, unsigned int, unsigned int, unsigned int, unsigned int)
 .text._ZN6Screen10ScrollAreaEjjjj
                0x01f39638       0x9c Screen.o
                0x01f39638                Screen::ScrollArea(unsigned int, unsigned int, unsigned int, unsigned int)
 .text._ZN6Screen5ClearEj
                0x01f396d4       0x80 Screen.o
                0x01f396d4                Screen::Clear(unsigned int)
 .text._ZN6Screen9WriteCharEbjjhj
                0x01f39754       0x20 Screen.o
                0x01f39754                Screen::WriteChar(bool, unsigned int, unsigned int, unsigned char, unsigned int)
 .text._ZN6Screen9PlotPixelEjjj
                0x01f39774       0x4c Screen.o
                0x01f39774                Screen::PlotPixel(unsigned int, unsigned int, unsigned int)
 .text._ZN6Screen8DrawLineEjjjjj
                0x01f397c0       0xf4 Screen.o
                0x01f397c0                Screen::DrawLine(unsigned int, unsigned int, unsigned int, unsigned int, unsigned int)
 .text._ZN6Screen9DrawLineVEjjjj
                0x01f398b4       0x68 Screen.o
                0x01f398b4                Screen::DrawLineV(unsigned int, unsigned int, unsigned int, unsigned int)
 .text._ZN6Screen9PrintTextEbjjPcjjbPjS1_
                0x01f3991c      0x20c Screen.o
                0x01f3991c                Screen::PrintText(bool, unsigned int, unsigned int, char*, unsigned int, unsigned int, bool, unsigned int*, unsigned int*)
 .text._ZN6Screen11MeasureTextEbPcPjS1_
                0x01f39b28       0xc8 Screen.o
                0x01f39b28                Screen::MeasureText(bool, char*, unsigned int*, unsigned int*)
 .text._ZN6Screen9PlotImageEPjiiii
                0x01f39bf0       0xa4 Screen.o
                0x01f39bf0                Screen::PlotImage(unsigned int*, int, int, int, int)
 .text          0x01f39c94        0x0 Timer.o
 .text.TimerInterruptHandler
                0x01f39c94       0xd0 Timer.o
 .text.TimerSystemInitialize
                0x01f39d64       0x68 Timer.o
                0x01f39d64                TimerSystemInitialize
 .text.TimerStartKernelTimer
                0x01f39dcc       0x78 Timer.o
                0x01f39dcc                TimerStartKernelTimer
 .text.TimerCancelKernelTimer
                0x01f39e44       0x18 Timer.o
                0x01f39e44                TimerCancelKernelTimer
 .text          0x01f39e5c        0x0 FileBrowser.o
 .text._ZN11FileBrowser10DisplayPNGER7FILINFOii.part.6
                0x01f39e5c       0xcc FileBrowser.o
 .text._ZN11FileBrowser9SelectLSTEPKc.part.10
                0x01f39f28      0x154 FileBrowser.o
 .text._ZN11FileBrowser13BrowsableList9FindEntryEPKc
                0x01f3a07c       0x78 FileBrowser.o
                0x01f3a07c                FileBrowser::BrowsableList::FindEntry(char const*)
 .text._ZN11FileBrowserC2EP9DiskCaddyP4ROMsjb
                0x01f3a0f4       0x58 FileBrowser.o
                0x01f3a0f4                FileBrowser::FileBrowser(DiskCaddy*, ROMs*, unsigned int, bool)
                0x01f3a0f4                FileBrowser::FileBrowser(DiskCaddy*, ROMs*, unsigned int, bool)
 .text._ZN11FileBrowser6ColourEi
                0x01f3a14c       0x14 FileBrowser.o
                0x01f3a14c                FileBrowser::Colour(int)
 .text._ZN11FileBrowser29RefeshDisplayForBrowsableListEPNS_13BrowsableListEib
                0x01f3a160      0x27c FileBrowser.o
                0x01f3a160                FileBrowser::RefeshDisplayForBrowsableList(FileBrowser::BrowsableList*, int, bool)
 .text._ZN11FileBrowser13RefeshDisplayEv
                0x01f3a3dc      0x210 FileBrowser.o
                0x01f3a3dc                FileBrowser::RefeshDisplay()
 .text._ZN11FileBrowser11CheckForPNGEPKcR7FILINFO
                0x01f3a5ec       0xb8 FileBrowser.o
                0x01f3a5ec                FileBrowser::CheckForPNG(char const*, FILINFO&)
 .text._ZN11FileBrowser10DisplayPNGER7FILINFOii
                0x01f3a6a4       0x30 FileBrowser.o
                0x01f3a6a4                FileBrowser::DisplayPNG(FILINFO&, int, int)
 .text._ZN11FileBrowser10DisplayPNGEv
                0x01f3a6d4       0x60 FileBrowser.o
                0x01f3a6d4                FileBrowser::DisplayPNG()
 .text._ZN11FileBrowser16GetCurrentFolderEv
                0x01f3a734        0x8 FileBrowser.o
                0x01f3a734                FileBrowser::GetCurrentFolder()
 .text._ZN11FileBrowser23FillCaddyWithSelectionsEv
                0x01f3a73c       0xb0 FileBrowser.o
                0x01f3a73c                FileBrowser::FillCaddyWithSelections()
 .text._ZN11FileBrowser9SelectLSTEPKc
                0x01f3a7ec       0x3c FileBrowser.o
                0x01f3a7ec                FileBrowser::SelectLST(char const*)
 .text._ZN11FileBrowser20UpdateInputDiskCaddyEv
                0x01f3a828       0xa8 FileBrowser.o
                0x01f3a828                FileBrowser::UpdateInputDiskCaddy()
 .text._ZN11FileBrowser16DisplayStatusBarEv
                0x01f3a8d0       0x64 FileBrowser.o
                0x01f3a8d0                FileBrowser::DisplayStatusBar()
 .text._ZN11FileBrowser11ClearScreenEv
                0x01f3a934       0x14 FileBrowser.o
                0x01f3a934                FileBrowser::ClearScreen()
 .text._ZN11FileBrowser16ShowDeviceAndROMEv
                0x01f3a948       0x84 FileBrowser.o
                0x01f3a948                FileBrowser::ShowDeviceAndROM()
 .text._ZN11FileBrowser15DisplayDiskInfoEP9DiskImagePKc
                0x01f3a9cc      0x88c FileBrowser.o
                0x01f3a9cc                FileBrowser::DisplayDiskInfo(DiskImage*, char const*)
 .text._ZNSt6vectorIN11FileBrowser13BrowsableList5EntryESaIS2_EE19_M_emplace_back_auxIJRKS2_EEEvDpOT_
                0x01f3b258       0xf4 FileBrowser.o
                0x01f3b258                void std::vector<FileBrowser::BrowsableList::Entry, std::allocator<FileBrowser::BrowsableList::Entry> >::_M_emplace_back_aux<FileBrowser::BrowsableList::Entry const&>(FileBrowser::BrowsableList::Entry const&)
                0x01f3b258                void std::vector<FileBrowser::BrowsableList::Entry, std::allocator<FileBrowser::BrowsableList::Entry> >::_M_emplace_back_aux<FileBrowser::BrowsableList::Entry const&>(FileBrowser::BrowsableList::Entry const&)
 .text._ZN11FileBrowser19AutoSelectTestImageEv
                0x01f3b34c      0x17c FileBrowser.o
                0x01f3b34c                FileBrowser::AutoSelectTestImage()
 .text._ZN11FileBrowser10AddToCaddyEPNS_13BrowsableList5EntryE
                0x01f3b4c8       0xf4 FileBrowser.o
                0x01f3b4c8                FileBrowser::AddToCaddy(FileBrowser::BrowsableList::Entry*)
 .text._ZSt16__insertion_sortIN9__gnu_cxx17__normal_iteratorIPN11FileBrowser13BrowsableList5EntryESt6vectorIS4_SaIS4_EEEENS0_5__ops15_Iter_comp_iterI7greaterEEEvT_SE_T0_
                0x01f3b5bc      0x1c8 FileBrowser.o
                0x01f3b5bc                void std::__insertion_sort<__gnu_cxx::__normal_iterator<FileBrowser::BrowsableList::Entry*, std::vector<FileBrowser::BrowsableList::Entry, std::allocator<FileBrowser::BrowsableList::Entry> > >, __gnu_cxx::__ops::_Iter_comp_iter<greater> >(__gnu_cxx::__normal_iterator<FileBrowser::BrowsableList::Entry*, std::vector<FileBrowser::BrowsableList::Entry, std::allocator<FileBrowser::BrowsableList::Entry> > >, __gnu_cxx::__normal_iterator<FileBrowser::BrowsableList::Entry*, std::vector<FileBrowser::BrowsableList::Entry, std::allocator<FileBrowser::BrowsableList::Entry> > >, __gnu_cxx::__ops::_Iter_comp_iter<greater>)
 .text._ZSt25__unguarded_linear_insertIN9__gnu_cxx17__normal_iteratorIPN11FileBrowser13BrowsableList5EntryESt6vectorIS4_SaIS4_EEEENS0_5__ops14_Val_comp_iterI7greaterEEEvT_T0_
                0x01f3b784       0xc4 FileBrowser.o
                0x01f3b784                void std::__unguarded_linear_insert<__gnu_cxx::__normal_iterator<FileBrowser::BrowsableList::Entry*, std::vector<FileBrowser::BrowsableList::Entry, std::allocator<FileBrowser::BrowsableList::Entry> > >, __gnu_cxx::__ops::_Val_comp_iter<greater> >(__gnu_cxx::__normal_iterator<FileBrowser::BrowsableList::Entry*, std::vector<FileBrowser::BrowsableList::Entry, std::allocator<FileBrowser::BrowsableList::Entry> > >, __gnu_cxx::__ops::_Val_comp_iter<greater>)
 .text._ZSt13__adjust_heapIN9__gnu_cxx17__normal_iteratorIPN11FileBrowser13BrowsableList5EntryESt6vectorIS4_SaIS4_EEEEiS4_NS0_5__ops15_Iter_comp_iterI7greaterEEEvT_T0_SF_T1_T2_
                0x01f3b848      0x2bc FileBrowser.o
                0x01f3b848                void std::__adjust_heap<__gnu_cxx::__normal_iterator<FileBrowser::BrowsableList::Entry*, std::vector<FileBrowser::BrowsableList::Entry, std::allocator<FileBrowser::BrowsableList::Entry> > >, int, FileBrowser::BrowsableList::Entry, __gnu_cxx::__ops::_Iter_comp_iter<greater> >(__gnu_cxx::__normal_iterator<FileBrowser::BrowsableList::Entry*, std::vector<FileBrowser::BrowsableList::Entry, std::allocator<FileBrowser::BrowsableList::Entry> > >, int, int, FileBrowser::BrowsableList::Entry, __gnu_cxx::__ops::_Iter_comp_iter<greater>)
 .text._ZSt11__make_heapIN9__gnu_cxx17__normal_iteratorIPN11FileBrowser13BrowsableList5EntryESt6vectorIS4_SaIS4_EEEENS0_5__ops15_Iter_comp_iterI7greaterEEEvT_SE_T0_
                0x01f3bb04       0x98 FileBrowser.o
                0x01f3bb04                void std::__make_heap<__gnu_cxx::__normal_iterator<FileBrowser::BrowsableList::Entry*, std::vector<FileBrowser::BrowsableList::Entry, std::allocator<FileBrowser::BrowsableList::Entry> > >, __gnu_cxx::__ops::_Iter_comp_iter<greater> >(__gnu_cxx::__normal_iterator<FileBrowser::BrowsableList::Entry*, std::vector<FileBrowser::BrowsableList::Entry, std::allocator<FileBrowser::BrowsableList::Entry> > >, __gnu_cxx::__normal_iterator<FileBrowser::BrowsableList::Entry*, std::vector<FileBrowser::BrowsableList::Entry, std::allocator<FileBrowser::BrowsableList::Entry> > >, __gnu_cxx::__ops::_Iter_comp_iter<greater>)
 .text._ZSt10__pop_heapIN9__gnu_cxx17__normal_iteratorIPN11FileBrowser13BrowsableList5EntryESt6vectorIS4_SaIS4_EEEENS0_5__ops15_Iter_comp_iterI7greaterEEEvT_SE_SE_T0_
                0x01f3bb9c       0x80 FileBrowser.o
                0x01f3bb9c                void std::__pop_heap<__gnu_cxx::__normal_iterator<FileBrowser::BrowsableList::Entry*, std::vector<FileBrowser::BrowsableList::Entry, std::allocator<FileBrowser::BrowsableList::Entry> > >, __gnu_cxx::__ops::_Iter_comp_iter<greater> >(__gnu_cxx::__normal_iterator<FileBrowser::BrowsableList::Entry*, std::vector<FileBrowser::BrowsableList::Entry, std::allocator<FileBrowser::BrowsableList::Entry> > >, __gnu_cxx::__normal_iterator<FileBrowser::BrowsableList::Entry*, std::vector<FileBrowser::BrowsableList::Entry, std::allocator<FileBrowser::BrowsableList::Entry> > >, __gnu_cxx::__normal_iterator<FileBrowser::BrowsableList::Entry*, std::vector<FileBrowser::BrowsableList::Entry, std::allocator<FileBrowser::BrowsableList::Entry> > >, __gnu_cxx::__ops::_Iter_comp_iter<greater>)
 .text._ZSt4swapIN11FileBrowser13BrowsableList5EntryEEvRT_S4_
                0x01f3bc1c       0x4c FileBrowser.o
                0x01f3bc1c                void std::swap<FileBrowser::BrowsableList::Entry>(FileBrowser::BrowsableList::Entry&, FileBrowser::BrowsableList::Entry&)
 .text._ZSt16__introsort_loopIN9__gnu_cxx17__normal_iteratorIPN11FileBrowser13BrowsableList5EntryESt6vectorIS4_SaIS4_EEEEiNS0_5__ops15_Iter_comp_iterI7greaterEEEvT_SE_T0_T1_
                0x01f3bc68      0x4a8 FileBrowser.o
                0x01f3bc68                void std::__introsort_loop<__gnu_cxx::__normal_iterator<FileBrowser::BrowsableList::Entry*, std::vector<FileBrowser::BrowsableList::Entry, std::allocator<FileBrowser::BrowsableList::Entry> > >, int, __gnu_cxx::__ops::_Iter_comp_iter<greater> >(__gnu_cxx::__normal_iterator<FileBrowser::BrowsableList::Entry*, std::vector<FileBrowser::BrowsableList::Entry, std::allocator<FileBrowser::BrowsableList::Entry> > >, __gnu_cxx::__normal_iterator<FileBrowser::BrowsableList::Entry*, std::vector<FileBrowser::BrowsableList::Entry, std::allocator<FileBrowser::BrowsableList::Entry> > >, int, __gnu_cxx::__ops::_Iter_comp_iter<greater>)
 .text._ZN11FileBrowser20RefreshFolderEntriesEv
                0x01f3c110      0x348 FileBrowser.o
                0x01f3c110                FileBrowser::RefreshFolderEntries()
 .text._ZN11FileBrowser13FolderChangedEv
                0x01f3c458       0x18 FileBrowser.o
                0x01f3c458                FileBrowser::FolderChanged()
 .text._ZN11FileBrowser11DisplayRootEv
                0x01f3c470       0x28 FileBrowser.o
                0x01f3c470                FileBrowser::DisplayRoot()
 .text._ZN11FileBrowser9PopFolderEv
                0x01f3c498       0x40 FileBrowser.o
                0x01f3c498                FileBrowser::PopFolder()
 .text._ZN11FileBrowser18UpdateInputFoldersEv
                0x01f3c4d8      0x7f8 FileBrowser.o
                0x01f3c4d8                FileBrowser::UpdateInputFolders()
 .text._ZN11FileBrowser11UpdateInputEv
                0x01f3ccd0       0xb0 FileBrowser.o
                0x01f3ccd0                FileBrowser::UpdateInput()
 .text          0x01f3cd80        0x0 DiskCaddy.o
 .text._ZN9DiskCaddy7DisplayEv
                0x01f3cd80      0x178 DiskCaddy.o
                0x01f3cd80                DiskCaddy::Display()
 .text._ZN9DiskCaddy17ShowSelectedImageEj
                0x01f3cef8       0x74 DiskCaddy.o
                0x01f3cef8                DiskCaddy::ShowSelectedImage(unsigned int)
 .text._ZN9DiskCaddy6UpdateEv
                0x01f3cf6c       0xe0 DiskCaddy.o
                0x01f3cf6c                DiskCaddy::Update()
 .text._ZNSt6vectorI9DiskImageSaIS0_EE19_M_emplace_back_auxIJRKS0_EEEvDpOT_
                0x01f3d04c      0x160 DiskCaddy.o
                0x01f3d04c                void std::vector<DiskImage, std::allocator<DiskImage> >::_M_emplace_back_aux<DiskImage const&>(DiskImage const&)
                0x01f3d04c                void std::vector<DiskImage, std::allocator<DiskImage> >::_M_emplace_back_aux<DiskImage const&>(DiskImage const&)
 .text._ZN9DiskCaddy9InsertNBZEPK7FILINFOPhjb
                0x01f3d1ac       0xd4 DiskCaddy.o
                0x01f3d1ac                DiskCaddy::InsertNBZ(FILINFO const*, unsigned char*, unsigned int, bool)
 .text._ZN9DiskCaddy9InsertD64EPK7FILINFOPhjb
                0x01f3d280       0xd8 DiskCaddy.o
                0x01f3d280                DiskCaddy::InsertD64(FILINFO const*, unsigned char*, unsigned int, bool)
 .text._ZN9DiskCaddy9InsertG64EPK7FILINFOPhjb
                0x01f3d358       0xd8 DiskCaddy.o
                0x01f3d358                DiskCaddy::InsertG64(FILINFO const*, unsigned char*, unsigned int, bool)
 .text._ZN9DiskCaddy9InsertNIBEPK7FILINFOPhjb
                0x01f3d430       0xd4 DiskCaddy.o
                0x01f3d430                DiskCaddy::InsertNIB(FILINFO const*, unsigned char*, unsigned int, bool)
 .text._ZN9DiskCaddy6InsertEPK7FILINFOb
                0x01f3d504      0x1c8 DiskCaddy.o
                0x01f3d504                DiskCaddy::Insert(FILINFO const*, bool)
 .text          0x01f3d6cc        0x0 ROMs.o
 .text._ZN4ROMs20ResetCurrentROMIndexEv
                0x01f3d6cc       0x24 ROMs.o
                0x01f3d6cc                ROMs::ResetCurrentROMIndex()
 .text._ZN4ROMs9SelectROMEPKc
                0x01f3d6f0       0x60 ROMs.o
                0x01f3d6f0                ROMs::SelectROM(char const*)
 .text          0x01f3d750        0x0 InputMappings.o
 .text._ZN9SingletonI13InputMappingsED2Ev
                0x01f3d750        0x4 InputMappings.o
                0x01f3d750                Singleton<InputMappings>::~Singleton()
                0x01f3d750                Singleton<InputMappings>::~Singleton()
 .text._ZN13InputMappingsD2Ev
                0x01f3d754        0x4 InputMappings.o
                0x01f3d754                InputMappings::~InputMappings()
                0x01f3d754                InputMappings::~InputMappings()
 .text._ZN13InputMappingsD0Ev
                0x01f3d758       0x14 InputMappings.o
                0x01f3d758                InputMappings::~InputMappings()
 .text._ZN9SingletonI13InputMappingsED0Ev
                0x01f3d76c       0x14 InputMappings.o
                0x01f3d76c                Singleton<InputMappings>::~Singleton()
 .text._ZN13InputMappingsC2Ev
                0x01f3d780       0x10 InputMappings.o
                0x01f3d780                InputMappings::InputMappings()
                0x01f3d780                InputMappings::InputMappings()
 .text._ZN13InputMappings22CheckButtonsBrowseModeEv
                0x01f3d790       0xf0 InputMappings.o
                0x01f3d790                InputMappings::CheckButtonsBrowseMode()
 .text._ZN13InputMappings25CheckButtonsEmulationModeEv
                0x01f3d880       0x9c InputMappings.o
                0x01f3d880                InputMappings::CheckButtonsEmulationMode()
 *fill*         0x01f3d91c        0x4 00000000
 .text._ZN13InputMappings23CheckKeyboardBrowseModeEv
                0x01f3d920      0x970 InputMappings.o
                0x01f3d920                InputMappings::CheckKeyboardBrowseMode()
 .text._ZN13InputMappings26CheckKeyboardEmulationModeEjj
                0x01f3e290      0x1d8 InputMappings.o
                0x01f3e290                InputMappings::CheckKeyboardEmulationMode(unsigned int, unsigned int)
 .text          0x01f3e468        0x0 xga_font_data.o
 .text          0x01f3e468        0x0 C:/Program Files (x86)/GNU Tools ARM Embedded/5.4 2016q2/arm-none-eabi/lib/fpu/libc.a(lib_a-abs.o)
 .text.abs      0x01f3e468        0xc C:/Program Files (x86)/GNU Tools ARM Embedded/5.4 2016q2/arm-none-eabi/lib/fpu/libc.a(lib_a-abs.o)
                0x01f3e468                abs
 .text          0x01f3e474        0x0 C:/Program Files (x86)/GNU Tools ARM Embedded/5.4 2016q2/arm-none-eabi/lib/fpu/libc.a(lib_a-aeabi_atexit.o)
 .text.__aeabi_atexit
                0x01f3e474       0x1c C:/Program Files (x86)/GNU Tools ARM Embedded/5.4 2016q2/arm-none-eabi/lib/fpu/libc.a(lib_a-aeabi_atexit.o)
                0x01f3e474                __aeabi_atexit
 .text          0x01f3e490        0x0 C:/Program Files (x86)/GNU Tools ARM Embedded/5.4 2016q2/arm-none-eabi/lib/fpu/libc.a(lib_a-cxa_atexit.o)
 .text.__cxa_atexit
                0x01f3e490       0x20 C:/Program Files (x86)/GNU Tools ARM Embedded/5.4 2016q2/arm-none-eabi/lib/fpu/libc.a(lib_a-cxa_atexit.o)
                0x01f3e490                __cxa_atexit
 .text          0x01f3e4b0        0x0 C:/Program Files (x86)/GNU Tools ARM Embedded/5.4 2016q2/arm-none-eabi/lib/fpu/libc.a(lib_a-init.o)
 .text.__libc_init_array
                0x01f3e4b0       0x80 C:/Program Files (x86)/GNU Tools ARM Embedded/5.4 2016q2/arm-none-eabi/lib/fpu/libc.a(lib_a-init.o)
                0x01f3e4b0                __libc_init_array
 .text          0x01f3e530        0x0 C:/Program Files (x86)/GNU Tools ARM Embedded/5.4 2016q2/arm-none-eabi/lib/fpu/libc.a(lib_a-isdigit.o)
 .text.isdigit  0x01f3e530       0x1c C:/Program Files (x86)/GNU Tools ARM Embedded/5.4 2016q2/arm-none-eabi/lib/fpu/libc.a(lib_a-isdigit.o)
                0x01f3e530                isdigit
 .text          0x01f3e54c        0x0 C:/Program Files (x86)/GNU Tools ARM Embedded/5.4 2016q2/arm-none-eabi/lib/fpu/libc.a(lib_a-isspace.o)
 .text.isspace  0x01f3e54c       0x1c C:/Program Files (x86)/GNU Tools ARM Embedded/5.4 2016q2/arm-none-eabi/lib/fpu/libc.a(lib_a-isspace.o)
                0x01f3e54c                isspace
 .text          0x01f3e568        0x0 C:/Program Files (x86)/GNU Tools ARM Embedded/5.4 2016q2/arm-none-eabi/lib/fpu/libc.a(lib_a-malloc.o)
 .text.malloc   0x01f3e568       0x20 C:/Program Files (x86)/GNU Tools ARM Embedded/5.4 2016q2/arm-none-eabi/lib/fpu/libc.a(lib_a-malloc.o)
                0x01f3e568                malloc
 .text.free     0x01f3e588       0x20 C:/Program Files (x86)/GNU Tools ARM Embedded/5.4 2016q2/arm-none-eabi/lib/fpu/libc.a(lib_a-malloc.o)
                0x01f3e588                free
 .text          0x01f3e5a8        0x0 C:/Program Files (x86)/GNU Tools ARM Embedded/5.4 2016q2/arm-none-eabi/lib/fpu/libc.a(lib_a-mallocr.o)
 .text._malloc_r
                0x01f3e5a8      0x7a8 C:/Program Files (x86)/GNU Tools ARM Embedded/5.4 2016q2/arm-none-eabi/lib/fpu/libc.a(lib_a-mallocr.o)
                0x01f3e5a8                _malloc_r
 .text          0x01f3ed50        0x0 C:/Program Files (x86)/GNU Tools ARM Embedded/5.4 2016q2/arm-none-eabi/lib/fpu/libc.a(lib_a-memcmp.o)
 .text.memcmp   0x01f3ed50       0xb0 C:/Program Files (x86)/GNU Tools ARM Embedded/5.4 2016q2/arm-none-eabi/lib/fpu/libc.a(lib_a-memcmp.o)
                0x01f3ed50                memcmp
 .text          0x01f3ee00        0x0 C:/Program Files (x86)/GNU Tools ARM Embedded/5.4 2016q2/arm-none-eabi/lib/fpu/libc.a(lib_a-memcpy-stub.o)
 .text.memcpy   0x01f3ee00       0xf0 C:/Program Files (x86)/GNU Tools ARM Embedded/5.4 2016q2/arm-none-eabi/lib/fpu/libc.a(lib_a-memcpy-stub.o)
                0x01f3ee00                memcpy
 .text          0x01f3eef0        0x0 C:/Program Files (x86)/GNU Tools ARM Embedded/5.4 2016q2/arm-none-eabi/lib/fpu/libc.a(lib_a-memmove.o)
 .text.memmove  0x01f3eef0      0x12c C:/Program Files (x86)/GNU Tools ARM Embedded/5.4 2016q2/arm-none-eabi/lib/fpu/libc.a(lib_a-memmove.o)
                0x01f3eef0                memmove
 .text          0x01f3f01c        0x0 C:/Program Files (x86)/GNU Tools ARM Embedded/5.4 2016q2/arm-none-eabi/lib/fpu/libc.a(lib_a-memset.o)
 .text.memset   0x01f3f01c       0xf4 C:/Program Files (x86)/GNU Tools ARM Embedded/5.4 2016q2/arm-none-eabi/lib/fpu/libc.a(lib_a-memset.o)
                0x01f3f01c                memset
 .text          0x01f3f110        0x0 C:/Program Files (x86)/GNU Tools ARM Embedded/5.4 2016q2/arm-none-eabi/lib/fpu/libc.a(lib_a-mlock.o)
 .text.__malloc_lock
                0x01f3f110        0x4 C:/Program Files (x86)/GNU Tools ARM Embedded/5.4 2016q2/arm-none-eabi/lib/fpu/libc.a(lib_a-mlock.o)
                0x01f3f110                __malloc_lock
 .text.__malloc_unlock
                0x01f3f114        0x4 C:/Program Files (x86)/GNU Tools ARM Embedded/5.4 2016q2/arm-none-eabi/lib/fpu/libc.a(lib_a-mlock.o)
                0x01f3f114                __malloc_unlock
 .text          0x01f3f118        0x0 C:/Program Files (x86)/GNU Tools ARM Embedded/5.4 2016q2/arm-none-eabi/lib/fpu/libc.a(lib_a-printf.o)
 .text._printf_r
                0x01f3f118       0x34 C:/Program Files (x86)/GNU Tools ARM Embedded/5.4 2016q2/arm-none-eabi/lib/fpu/libc.a(lib_a-printf.o)
                0x01f3f118                _printf_r
 .text.printf   0x01f3f14c       0x40 C:/Program Files (x86)/GNU Tools ARM Embedded/5.4 2016q2/arm-none-eabi/lib/fpu/libc.a(lib_a-printf.o)
                0x01f3f14c                printf
 .text          0x01f3f18c        0x0 C:/Program Files (x86)/GNU Tools ARM Embedded/5.4 2016q2/arm-none-eabi/lib/fpu/libc.a(lib_a-rand.o)
 .text.srand    0x01f3f18c       0x1c C:/Program Files (x86)/GNU Tools ARM Embedded/5.4 2016q2/arm-none-eabi/lib/fpu/libc.a(lib_a-rand.o)
                0x01f3f18c                srand
 .text.rand     0x01f3f1a8       0x54 C:/Program Files (x86)/GNU Tools ARM Embedded/5.4 2016q2/arm-none-eabi/lib/fpu/libc.a(lib_a-rand.o)
                0x01f3f1a8                rand
 .text          0x01f3f1fc        0x0 C:/Program Files (x86)/GNU Tools ARM Embedded/5.4 2016q2/arm-none-eabi/lib/fpu/libc.a(lib_a-realloc.o)
 .text.realloc  0x01f3f1fc       0x24 C:/Program Files (x86)/GNU Tools ARM Embedded/5.4 2016q2/arm-none-eabi/lib/fpu/libc.a(lib_a-realloc.o)
                0x01f3f1fc                realloc
 .text          0x01f3f220        0x0 C:/Program Files (x86)/GNU Tools ARM Embedded/5.4 2016q2/arm-none-eabi/lib/fpu/libc.a(lib_a-reallocr.o)
 .text._realloc_r
                0x01f3f220      0x580 C:/Program Files (x86)/GNU Tools ARM Embedded/5.4 2016q2/arm-none-eabi/lib/fpu/libc.a(lib_a-reallocr.o)
                0x01f3f220                _realloc_r
 .text          0x01f3f7a0        0x0 C:/Program Files (x86)/GNU Tools ARM Embedded/5.4 2016q2/arm-none-eabi/lib/fpu/libc.a(lib_a-reent.o)
 .text.cleanup_glue
                0x01f3f7a0       0x2c C:/Program Files (x86)/GNU Tools ARM Embedded/5.4 2016q2/arm-none-eabi/lib/fpu/libc.a(lib_a-reent.o)
                0x01f3f7a0                cleanup_glue
 .text._reclaim_reent
                0x01f3f7cc       0xf4 C:/Program Files (x86)/GNU Tools ARM Embedded/5.4 2016q2/arm-none-eabi/lib/fpu/libc.a(lib_a-reent.o)
                0x01f3f7cc                _reclaim_reent
 .text          0x01f3f8c0        0x0 C:/Program Files (x86)/GNU Tools ARM Embedded/5.4 2016q2/arm-none-eabi/lib/fpu/libc.a(lib_a-sbrkr.o)
 .text._sbrk_r  0x01f3f8c0       0x44 C:/Program Files (x86)/GNU Tools ARM Embedded/5.4 2016q2/arm-none-eabi/lib/fpu/libc.a(lib_a-sbrkr.o)
                0x01f3f8c0                _sbrk_r
 .text          0x01f3f904        0x0 C:/Program Files (x86)/GNU Tools ARM Embedded/5.4 2016q2/arm-none-eabi/lib/fpu/libc.a(lib_a-snprintf.o)
 .text._snprintf_r
                0x01f3f904       0xd8 C:/Program Files (x86)/GNU Tools ARM Embedded/5.4 2016q2/arm-none-eabi/lib/fpu/libc.a(lib_a-snprintf.o)
                0x01f3f904                _snprintf_r
 .text.snprintf
                0x01f3f9dc       0xe8 C:/Program Files (x86)/GNU Tools ARM Embedded/5.4 2016q2/arm-none-eabi/lib/fpu/libc.a(lib_a-snprintf.o)
                0x01f3f9dc                snprintf
 .text          0x01f3fac4        0x0 C:/Program Files (x86)/GNU Tools ARM Embedded/5.4 2016q2/arm-none-eabi/lib/fpu/libc.a(lib_a-sprintf.o)
 .text._sprintf_r
                0x01f3fac4       0x64 C:/Program Files (x86)/GNU Tools ARM Embedded/5.4 2016q2/arm-none-eabi/lib/fpu/libc.a(lib_a-sprintf.o)
                0x01f3fac4                _sprintf_r
 .text.sprintf  0x01f3fb28       0x74 C:/Program Files (x86)/GNU Tools ARM Embedded/5.4 2016q2/arm-none-eabi/lib/fpu/libc.a(lib_a-sprintf.o)
                0x01f3fb28                sprintf
 .text          0x01f3fb9c        0x0 C:/Program Files (x86)/GNU Tools ARM Embedded/5.4 2016q2/arm-none-eabi/lib/fpu/libc.a(lib_a-strcasecmp.o)
 .text.strcasecmp
                0x01f3fb9c       0x74 C:/Program Files (x86)/GNU Tools ARM Embedded/5.4 2016q2/arm-none-eabi/lib/fpu/libc.a(lib_a-strcasecmp.o)
                0x01f3fb9c                strcasecmp
 .text          0x01f3fc10        0x0 C:/Program Files (x86)/GNU Tools ARM Embedded/5.4 2016q2/arm-none-eabi/lib/fpu/libc.a(lib_a-strcat.o)
 .text.strcat   0x01f3fc10       0x84 C:/Program Files (x86)/GNU Tools ARM Embedded/5.4 2016q2/arm-none-eabi/lib/fpu/libc.a(lib_a-strcat.o)
                0x01f3fc10                strcat
 .text          0x01f3fc94        0x0 C:/Program Files (x86)/GNU Tools ARM Embedded/5.4 2016q2/arm-none-eabi/lib/fpu/libc.a(lib_a-strchr.o)
 .text.strchr   0x01f3fc94      0x168 C:/Program Files (x86)/GNU Tools ARM Embedded/5.4 2016q2/arm-none-eabi/lib/fpu/libc.a(lib_a-strchr.o)
                0x01f3fc94                strchr
 .text          0x01f3fdfc      0x224 C:/Program Files (x86)/GNU Tools ARM Embedded/5.4 2016q2/arm-none-eabi/lib/fpu/libc.a(lib_a-strcmp.o)
                0x01f3fdfc                strcmp
 .text          0x01f40020        0x0 C:/Program Files (x86)/GNU Tools ARM Embedded/5.4 2016q2/arm-none-eabi/lib/fpu/libc.a(lib_a-strcpy.o)
 .text.strcpy   0x01f40020       0xf0 C:/Program Files (x86)/GNU Tools ARM Embedded/5.4 2016q2/arm-none-eabi/lib/fpu/libc.a(lib_a-strcpy.o)
                0x01f40020                strcpy
 .text          0x01f40110        0x0 C:/Program Files (x86)/GNU Tools ARM Embedded/5.4 2016q2/arm-none-eabi/lib/fpu/libc.a(lib_a-strlen-stub.o)
 .text.strlen   0x01f40110       0x60 C:/Program Files (x86)/GNU Tools ARM Embedded/5.4 2016q2/arm-none-eabi/lib/fpu/libc.a(lib_a-strlen-stub.o)
                0x01f40110                strlen
 .text          0x01f40170        0x0 C:/Program Files (x86)/GNU Tools ARM Embedded/5.4 2016q2/arm-none-eabi/lib/fpu/libc.a(lib_a-strncasecmp.o)
 .text.strncasecmp
                0x01f40170       0x94 C:/Program Files (x86)/GNU Tools ARM Embedded/5.4 2016q2/arm-none-eabi/lib/fpu/libc.a(lib_a-strncasecmp.o)
                0x01f40170                strncasecmp
 .text          0x01f40204        0x0 C:/Program Files (x86)/GNU Tools ARM Embedded/5.4 2016q2/arm-none-eabi/lib/fpu/libc.a(lib_a-strncpy.o)
 .text.strncpy  0x01f40204       0xe4 C:/Program Files (x86)/GNU Tools ARM Embedded/5.4 2016q2/arm-none-eabi/lib/fpu/libc.a(lib_a-strncpy.o)
                0x01f40204                strncpy
 .text          0x01f402e8        0x0 C:/Program Files (x86)/GNU Tools ARM Embedded/5.4 2016q2/arm-none-eabi/lib/fpu/libc.a(lib_a-strrchr.o)
 .text.strrchr  0x01f402e8       0x54 C:/Program Files (x86)/GNU Tools ARM Embedded/5.4 2016q2/arm-none-eabi/lib/fpu/libc.a(lib_a-strrchr.o)
                0x01f402e8                strrchr
 .text          0x01f4033c        0x0 C:/Program Files (x86)/GNU Tools ARM Embedded/5.4 2016q2/arm-none-eabi/lib/fpu/libc.a(lib_a-strstr.o)
 .text.critical_factorization
                0x01f4033c      0x11c C:/Program Files (x86)/GNU Tools ARM Embedded/5.4 2016q2/arm-none-eabi/lib/fpu/libc.a(lib_a-strstr.o)
 .text.two_way_long_needle
                0x01f40458      0x394 C:/Program Files (x86)/GNU Tools ARM Embedded/5.4 2016q2/arm-none-eabi/lib/fpu/libc.a(lib_a-strstr.o)
 .text.strstr   0x01f407ec      0x37c C:/Program Files (x86)/GNU Tools ARM Embedded/5.4 2016q2/arm-none-eabi/lib/fpu/libc.a(lib_a-strstr.o)
                0x01f407ec                strstr
 .text          0x01f40b68        0x0 C:/Program Files (x86)/GNU Tools ARM Embedded/5.4 2016q2/arm-none-eabi/lib/fpu/libc.a(lib_a-svfprintf.o)
 .text._svfprintf_r
                0x01f40b68     0x2268 C:/Program Files (x86)/GNU Tools ARM Embedded/5.4 2016q2/arm-none-eabi/lib/fpu/libc.a(lib_a-svfprintf.o)
                0x01f40b68                _svfprintf_r
 .text          0x01f42dd0        0x0 C:/Program Files (x86)/GNU Tools ARM Embedded/5.4 2016q2/arm-none-eabi/lib/fpu/libc.a(lib_a-toupper.o)
 .text.toupper  0x01f42dd0       0x24 C:/Program Files (x86)/GNU Tools ARM Embedded/5.4 2016q2/arm-none-eabi/lib/fpu/libc.a(lib_a-toupper.o)
                0x01f42dd0                toupper
 .text          0x01f42df4        0x0 C:/Program Files (x86)/GNU Tools ARM Embedded/5.4 2016q2/arm-none-eabi/lib/fpu/libc.a(lib_a-vfprintf.o)
 *fill*         0x01f42df4        0x4 00000000
 .text._vfprintf_r
                0x01f42df8     0x222c C:/Program Files (x86)/GNU Tools ARM Embedded/5.4 2016q2/arm-none-eabi/lib/fpu/libc.a(lib_a-vfprintf.o)
                0x01f42df8                _vfprintf_r
 .text.vfprintf
                0x01f45024       0x1c C:/Program Files (x86)/GNU Tools ARM Embedded/5.4 2016q2/arm-none-eabi/lib/fpu/libc.a(lib_a-vfprintf.o)
                0x01f45024                vfprintf
 .text.__sbprintf
                0x01f45040       0xac C:/Program Files (x86)/GNU Tools ARM Embedded/5.4 2016q2/arm-none-eabi/lib/fpu/libc.a(lib_a-vfprintf.o)
 .text          0x01f450ec        0x0 C:/Program Files (x86)/GNU Tools ARM Embedded/5.4 2016q2/arm-none-eabi/lib/fpu/libc.a(lib_a-vprintf.o)
 .text.vprintf  0x01f450ec       0x2c C:/Program Files (x86)/GNU Tools ARM Embedded/5.4 2016q2/arm-none-eabi/lib/fpu/libc.a(lib_a-vprintf.o)
                0x01f450ec                vprintf
 .text._vprintf_r
                0x01f45118       0x1c C:/Program Files (x86)/GNU Tools ARM Embedded/5.4 2016q2/arm-none-eabi/lib/fpu/libc.a(lib_a-vprintf.o)
                0x01f45118                _vprintf_r
 .text          0x01f45134        0x0 C:/Program Files (x86)/GNU Tools ARM Embedded/5.4 2016q2/arm-none-eabi/lib/fpu/libc.a(lib_a-wsetup.o)
 .text.__swsetup_r
                0x01f45134      0x164 C:/Program Files (x86)/GNU Tools ARM Embedded/5.4 2016q2/arm-none-eabi/lib/fpu/libc.a(lib_a-wsetup.o)
                0x01f45134                __swsetup_r
 .text          0x01f45298        0x0 C:/Program Files (x86)/GNU Tools ARM Embedded/5.4 2016q2/arm-none-eabi/lib/fpu/libc.a(lib_a-__atexit.o)
 .text.__register_exitproc
                0x01f45298       0xe0 C:/Program Files (x86)/GNU Tools ARM Embedded/5.4 2016q2/arm-none-eabi/lib/fpu/libc.a(lib_a-__atexit.o)
                0x01f45298                __register_exitproc
 .text          0x01f45378        0x0 C:/Program Files (x86)/GNU Tools ARM Embedded/5.4 2016q2/arm-none-eabi/lib/fpu/libc.a(lib_a-ctype_.o)
 .text          0x01f45378        0x0 C:/Program Files (x86)/GNU Tools ARM Embedded/5.4 2016q2/arm-none-eabi/lib/fpu/libc.a(lib_a-dtoa.o)
 .text.quorem   0x01f45378      0x1d8 C:/Program Files (x86)/GNU Tools ARM Embedded/5.4 2016q2/arm-none-eabi/lib/fpu/libc.a(lib_a-dtoa.o)
 .text._dtoa_r  0x01f45550     0x12e8 C:/Program Files (x86)/GNU Tools ARM Embedded/5.4 2016q2/arm-none-eabi/lib/fpu/libc.a(lib_a-dtoa.o)
                0x01f45550                _dtoa_r
 .text          0x01f46838        0x0 C:/Program Files (x86)/GNU Tools ARM Embedded/5.4 2016q2/arm-none-eabi/lib/fpu/libc.a(lib_a-fflush.o)
 .text.__sflush_r
                0x01f46838      0x240 C:/Program Files (x86)/GNU Tools ARM Embedded/5.4 2016q2/arm-none-eabi/lib/fpu/libc.a(lib_a-fflush.o)
                0x01f46838                __sflush_r
 .text._fflush_r
                0x01f46a78       0x54 C:/Program Files (x86)/GNU Tools ARM Embedded/5.4 2016q2/arm-none-eabi/lib/fpu/libc.a(lib_a-fflush.o)
                0x01f46a78                _fflush_r
 .text.fflush   0x01f46acc       0x38 C:/Program Files (x86)/GNU Tools ARM Embedded/5.4 2016q2/arm-none-eabi/lib/fpu/libc.a(lib_a-fflush.o)
                0x01f46acc                fflush
 .text          0x01f46b04        0x0 C:/Program Files (x86)/GNU Tools ARM Embedded/5.4 2016q2/arm-none-eabi/lib/fpu/libc.a(lib_a-findfp.o)
 .text.__fp_unlock
                0x01f46b04        0x8 C:/Program Files (x86)/GNU Tools ARM Embedded/5.4 2016q2/arm-none-eabi/lib/fpu/libc.a(lib_a-findfp.o)
 .text._cleanup_r
                0x01f46b0c       0x18 C:/Program Files (x86)/GNU Tools ARM Embedded/5.4 2016q2/arm-none-eabi/lib/fpu/libc.a(lib_a-findfp.o)
                0x01f46b0c                _cleanup_r
 .text.__sinit.part.1
                0x01f46b24      0x160 C:/Program Files (x86)/GNU Tools ARM Embedded/5.4 2016q2/arm-none-eabi/lib/fpu/libc.a(lib_a-findfp.o)
 .text.__fp_lock
                0x01f46c84        0x8 C:/Program Files (x86)/GNU Tools ARM Embedded/5.4 2016q2/arm-none-eabi/lib/fpu/libc.a(lib_a-findfp.o)
 .text.__sfmoreglue
                0x01f46c8c       0x50 C:/Program Files (x86)/GNU Tools ARM Embedded/5.4 2016q2/arm-none-eabi/lib/fpu/libc.a(lib_a-findfp.o)
                0x01f46c8c                __sfmoreglue
 .text.__sfp    0x01f46cdc       0xec C:/Program Files (x86)/GNU Tools ARM Embedded/5.4 2016q2/arm-none-eabi/lib/fpu/libc.a(lib_a-findfp.o)
                0x01f46cdc                __sfp
 .text._cleanup
                0x01f46dc8       0x24 C:/Program Files (x86)/GNU Tools ARM Embedded/5.4 2016q2/arm-none-eabi/lib/fpu/libc.a(lib_a-findfp.o)
                0x01f46dc8                _cleanup
 .text.__sinit  0x01f46dec       0x10 C:/Program Files (x86)/GNU Tools ARM Embedded/5.4 2016q2/arm-none-eabi/lib/fpu/libc.a(lib_a-findfp.o)
                0x01f46dec                __sinit
 .text.__sfp_lock_acquire
                0x01f46dfc        0x4 C:/Program Files (x86)/GNU Tools ARM Embedded/5.4 2016q2/arm-none-eabi/lib/fpu/libc.a(lib_a-findfp.o)
                0x01f46dfc                __sfp_lock_acquire
 .text.__sfp_lock_release
                0x01f46e00        0x4 C:/Program Files (x86)/GNU Tools ARM Embedded/5.4 2016q2/arm-none-eabi/lib/fpu/libc.a(lib_a-findfp.o)
                0x01f46e00                __sfp_lock_release
 .text.__sinit_lock_acquire
                0x01f46e04        0x4 C:/Program Files (x86)/GNU Tools ARM Embedded/5.4 2016q2/arm-none-eabi/lib/fpu/libc.a(lib_a-findfp.o)
                0x01f46e04                __sinit_lock_acquire
 .text.__sinit_lock_release
                0x01f46e08        0x4 C:/Program Files (x86)/GNU Tools ARM Embedded/5.4 2016q2/arm-none-eabi/lib/fpu/libc.a(lib_a-findfp.o)
                0x01f46e08                __sinit_lock_release
 .text.__fp_lock_all
                0x01f46e0c       0x24 C:/Program Files (x86)/GNU Tools ARM Embedded/5.4 2016q2/arm-none-eabi/lib/fpu/libc.a(lib_a-findfp.o)
                0x01f46e0c                __fp_lock_all
 .text.__fp_unlock_all
                0x01f46e30       0x24 C:/Program Files (x86)/GNU Tools ARM Embedded/5.4 2016q2/arm-none-eabi/lib/fpu/libc.a(lib_a-findfp.o)
                0x01f46e30                __fp_unlock_all
 .text          0x01f46e54        0x0 C:/Program Files (x86)/GNU Tools ARM Embedded/5.4 2016q2/arm-none-eabi/lib/fpu/libc.a(lib_a-freer.o)
 .text._malloc_trim_r
                0x01f46e54      0x100 C:/Program Files (x86)/GNU Tools ARM Embedded/5.4 2016q2/arm-none-eabi/lib/fpu/libc.a(lib_a-freer.o)
                0x01f46e54                _malloc_trim_r
 .text._free_r  0x01f46f54      0x2ec C:/Program Files (x86)/GNU Tools ARM Embedded/5.4 2016q2/arm-none-eabi/lib/fpu/libc.a(lib_a-freer.o)
                0x01f46f54                _free_r
 .text          0x01f47240        0x0 C:/Program Files (x86)/GNU Tools ARM Embedded/5.4 2016q2/arm-none-eabi/lib/fpu/libc.a(lib_a-fwalk.o)
 .text._fwalk   0x01f47240       0x84 C:/Program Files (x86)/GNU Tools ARM Embedded/5.4 2016q2/arm-none-eabi/lib/fpu/libc.a(lib_a-fwalk.o)
                0x01f47240                _fwalk
 .text._fwalk_reent
                0x01f472c4       0x8c C:/Program Files (x86)/GNU Tools ARM Embedded/5.4 2016q2/arm-none-eabi/lib/fpu/libc.a(lib_a-fwalk.o)
                0x01f472c4                _fwalk_reent
 .text          0x01f47350        0x0 C:/Program Files (x86)/GNU Tools ARM Embedded/5.4 2016q2/arm-none-eabi/lib/fpu/libc.a(lib_a-impure.o)
 .text          0x01f47350        0x0 C:/Program Files (x86)/GNU Tools ARM Embedded/5.4 2016q2/arm-none-eabi/lib/fpu/libc.a(lib_a-locale.o)
 .text._setlocale_r
                0x01f47350       0x74 C:/Program Files (x86)/GNU Tools ARM Embedded/5.4 2016q2/arm-none-eabi/lib/fpu/libc.a(lib_a-locale.o)
                0x01f47350                _setlocale_r
 .text.__locale_charset
                0x01f473c4        0xc C:/Program Files (x86)/GNU Tools ARM Embedded/5.4 2016q2/arm-none-eabi/lib/fpu/libc.a(lib_a-locale.o)
                0x01f473c4                __locale_charset
 .text.__locale_mb_cur_max
                0x01f473d0       0x10 C:/Program Files (x86)/GNU Tools ARM Embedded/5.4 2016q2/arm-none-eabi/lib/fpu/libc.a(lib_a-locale.o)
                0x01f473d0                __locale_mb_cur_max
 .text.__locale_msgcharset
                0x01f473e0        0xc C:/Program Files (x86)/GNU Tools ARM Embedded/5.4 2016q2/arm-none-eabi/lib/fpu/libc.a(lib_a-locale.o)
                0x01f473e0                __locale_msgcharset
 .text.__locale_cjk_lang
                0x01f473ec        0x8 C:/Program Files (x86)/GNU Tools ARM Embedded/5.4 2016q2/arm-none-eabi/lib/fpu/libc.a(lib_a-locale.o)
                0x01f473ec                __locale_cjk_lang
 .text._localeconv_r
                0x01f473f4        0xc C:/Program Files (x86)/GNU Tools ARM Embedded/5.4 2016q2/arm-none-eabi/lib/fpu/libc.a(lib_a-locale.o)
                0x01f473f4                _localeconv_r
 .text.setlocale
                0x01f47400       0x18 C:/Program Files (x86)/GNU Tools ARM Embedded/5.4 2016q2/arm-none-eabi/lib/fpu/libc.a(lib_a-locale.o)
                0x01f47400                setlocale
 .text.localeconv
                0x01f47418        0xc C:/Program Files (x86)/GNU Tools ARM Embedded/5.4 2016q2/arm-none-eabi/lib/fpu/libc.a(lib_a-locale.o)
                0x01f47418                localeconv
 .text          0x01f47424        0x0 C:/Program Files (x86)/GNU Tools ARM Embedded/5.4 2016q2/arm-none-eabi/lib/fpu/libc.a(lib_a-makebuf.o)
 .text.__swhatbuf_r
                0x01f47424       0x94 C:/Program Files (x86)/GNU Tools ARM Embedded/5.4 2016q2/arm-none-eabi/lib/fpu/libc.a(lib_a-makebuf.o)
                0x01f47424                __swhatbuf_r
 .text.__smakebuf_r
                0x01f474b8       0xe8 C:/Program Files (x86)/GNU Tools ARM Embedded/5.4 2016q2/arm-none-eabi/lib/fpu/libc.a(lib_a-makebuf.o)
                0x01f474b8                __smakebuf_r
 .text          0x01f475a0        0x0 C:/Program Files (x86)/GNU Tools ARM Embedded/5.4 2016q2/arm-none-eabi/lib/fpu/libc.a(lib_a-memchr-stub.o)
 .text.memchr   0x01f475a0      0x114 C:/Program Files (x86)/GNU Tools ARM Embedded/5.4 2016q2/arm-none-eabi/lib/fpu/libc.a(lib_a-memchr-stub.o)
                0x01f475a0                memchr
 .text          0x01f476b4        0x0 C:/Program Files (x86)/GNU Tools ARM Embedded/5.4 2016q2/arm-none-eabi/lib/fpu/libc.a(lib_a-mprec.o)
 .text._Balloc  0x01f476b4       0x90 C:/Program Files (x86)/GNU Tools ARM Embedded/5.4 2016q2/arm-none-eabi/lib/fpu/libc.a(lib_a-mprec.o)
                0x01f476b4                _Balloc
 .text._Bfree   0x01f47744       0x1c C:/Program Files (x86)/GNU Tools ARM Embedded/5.4 2016q2/arm-none-eabi/lib/fpu/libc.a(lib_a-mprec.o)
                0x01f47744                _Bfree
 .text.__multadd
                0x01f47760       0xdc C:/Program Files (x86)/GNU Tools ARM Embedded/5.4 2016q2/arm-none-eabi/lib/fpu/libc.a(lib_a-mprec.o)
                0x01f47760                __multadd
 .text.__s2b    0x01f4783c       0xe8 C:/Program Files (x86)/GNU Tools ARM Embedded/5.4 2016q2/arm-none-eabi/lib/fpu/libc.a(lib_a-mprec.o)
                0x01f4783c                __s2b
 .text.__hi0bits
                0x01f47924       0x5c C:/Program Files (x86)/GNU Tools ARM Embedded/5.4 2016q2/arm-none-eabi/lib/fpu/libc.a(lib_a-mprec.o)
                0x01f47924                __hi0bits
 .text.__lo0bits
                0x01f47980       0x94 C:/Program Files (x86)/GNU Tools ARM Embedded/5.4 2016q2/arm-none-eabi/lib/fpu/libc.a(lib_a-mprec.o)
                0x01f47980                __lo0bits
 .text.__i2b    0x01f47a14       0x24 C:/Program Files (x86)/GNU Tools ARM Embedded/5.4 2016q2/arm-none-eabi/lib/fpu/libc.a(lib_a-mprec.o)
                0x01f47a14                __i2b
 .text.__multiply
                0x01f47a38      0x1f0 C:/Program Files (x86)/GNU Tools ARM Embedded/5.4 2016q2/arm-none-eabi/lib/fpu/libc.a(lib_a-mprec.o)
                0x01f47a38                __multiply
 .text.__pow5mult
                0x01f47c28      0x104 C:/Program Files (x86)/GNU Tools ARM Embedded/5.4 2016q2/arm-none-eabi/lib/fpu/libc.a(lib_a-mprec.o)
                0x01f47c28                __pow5mult
 .text.__lshift
                0x01f47d2c       0xf4 C:/Program Files (x86)/GNU Tools ARM Embedded/5.4 2016q2/arm-none-eabi/lib/fpu/libc.a(lib_a-mprec.o)
                0x01f47d2c                __lshift
 .text.__mcmp   0x01f47e20       0x64 C:/Program Files (x86)/GNU Tools ARM Embedded/5.4 2016q2/arm-none-eabi/lib/fpu/libc.a(lib_a-mprec.o)
                0x01f47e20                __mcmp
 .text.__mdiff  0x01f47e84      0x1b0 C:/Program Files (x86)/GNU Tools ARM Embedded/5.4 2016q2/arm-none-eabi/lib/fpu/libc.a(lib_a-mprec.o)
                0x01f47e84                __mdiff
 .text.__ulp    0x01f48034       0x78 C:/Program Files (x86)/GNU Tools ARM Embedded/5.4 2016q2/arm-none-eabi/lib/fpu/libc.a(lib_a-mprec.o)
                0x01f48034                __ulp
 .text.__b2d    0x01f480ac       0xdc C:/Program Files (x86)/GNU Tools ARM Embedded/5.4 2016q2/arm-none-eabi/lib/fpu/libc.a(lib_a-mprec.o)
                0x01f480ac                __b2d
 .text.__d2b    0x01f48188      0x10c C:/Program Files (x86)/GNU Tools ARM Embedded/5.4 2016q2/arm-none-eabi/lib/fpu/libc.a(lib_a-mprec.o)
                0x01f48188                __d2b
 .text.__ratio  0x01f48294       0x84 C:/Program Files (x86)/GNU Tools ARM Embedded/5.4 2016q2/arm-none-eabi/lib/fpu/libc.a(lib_a-mprec.o)
                0x01f48294                __ratio
 .text._mprec_log10
                0x01f48318       0x44 C:/Program Files (x86)/GNU Tools ARM Embedded/5.4 2016q2/arm-none-eabi/lib/fpu/libc.a(lib_a-mprec.o)
                0x01f48318                _mprec_log10
 .text.__copybits
                0x01f4835c       0x70 C:/Program Files (x86)/GNU Tools ARM Embedded/5.4 2016q2/arm-none-eabi/lib/fpu/libc.a(lib_a-mprec.o)
                0x01f4835c                __copybits
 .text.__any_on
                0x01f483cc       0x80 C:/Program Files (x86)/GNU Tools ARM Embedded/5.4 2016q2/arm-none-eabi/lib/fpu/libc.a(lib_a-mprec.o)
                0x01f483cc                __any_on
 .text          0x01f4844c        0x0 C:/Program Files (x86)/GNU Tools ARM Embedded/5.4 2016q2/arm-none-eabi/lib/fpu/libc.a(lib_a-stdio.o)
 .text.__sread  0x01f4844c       0x34 C:/Program Files (x86)/GNU Tools ARM Embedded/5.4 2016q2/arm-none-eabi/lib/fpu/libc.a(lib_a-stdio.o)
                0x01f4844c                __sread
 .text.__seofread
                0x01f48480        0x8 C:/Program Files (x86)/GNU Tools ARM Embedded/5.4 2016q2/arm-none-eabi/lib/fpu/libc.a(lib_a-stdio.o)
                0x01f48480                __seofread
 .text.__swrite
                0x01f48488       0x58 C:/Program Files (x86)/GNU Tools ARM Embedded/5.4 2016q2/arm-none-eabi/lib/fpu/libc.a(lib_a-stdio.o)
                0x01f48488                __swrite
 .text.__sseek  0x01f484e0       0x30 C:/Program Files (x86)/GNU Tools ARM Embedded/5.4 2016q2/arm-none-eabi/lib/fpu/libc.a(lib_a-stdio.o)
                0x01f484e0                __sseek
 .text.__sclose
                0x01f48510       0x14 C:/Program Files (x86)/GNU Tools ARM Embedded/5.4 2016q2/arm-none-eabi/lib/fpu/libc.a(lib_a-stdio.o)
                0x01f48510                __sclose
 .text          0x01f48524        0x0 C:/Program Files (x86)/GNU Tools ARM Embedded/5.4 2016q2/arm-none-eabi/lib/fpu/libc.a(lib_a-svfiprintf.o)
 .text.__ssprint_r
                0x01f48524      0x1b0 C:/Program Files (x86)/GNU Tools ARM Embedded/5.4 2016q2/arm-none-eabi/lib/fpu/libc.a(lib_a-svfiprintf.o)
                0x01f48524                __ssprint_r
 .text._svfiprintf_r
                0x01f486d4     0x12b0 C:/Program Files (x86)/GNU Tools ARM Embedded/5.4 2016q2/arm-none-eabi/lib/fpu/libc.a(lib_a-svfiprintf.o)
                0x01f486d4                _svfiprintf_r
 .text          0x01f49984        0x0 C:/Program Files (x86)/GNU Tools ARM Embedded/5.4 2016q2/arm-none-eabi/lib/fpu/libc.a(lib_a-vfiprintf.o)
 .text.__sprint_r.part.0
                0x01f49984       0xac C:/Program Files (x86)/GNU Tools ARM Embedded/5.4 2016q2/arm-none-eabi/lib/fpu/libc.a(lib_a-vfiprintf.o)
 .text.__sprint_r
                0x01f49a30       0x18 C:/Program Files (x86)/GNU Tools ARM Embedded/5.4 2016q2/arm-none-eabi/lib/fpu/libc.a(lib_a-vfiprintf.o)
                0x01f49a30                __sprint_r
 .text._vfiprintf_r
                0x01f49a48     0x1560 C:/Program Files (x86)/GNU Tools ARM Embedded/5.4 2016q2/arm-none-eabi/lib/fpu/libc.a(lib_a-vfiprintf.o)
                0x01f49a48                _vfiprintf_r
 .text.vfiprintf
                0x01f4afa8       0x1c C:/Program Files (x86)/GNU Tools ARM Embedded/5.4 2016q2/arm-none-eabi/lib/fpu/libc.a(lib_a-vfiprintf.o)
                0x01f4afa8                vfiprintf
 .text.__sbprintf
                0x01f4afc4       0xac C:/Program Files (x86)/GNU Tools ARM Embedded/5.4 2016q2/arm-none-eabi/lib/fpu/libc.a(lib_a-vfiprintf.o)
 .text          0x01f4b070        0x0 C:/Program Files (x86)/GNU Tools ARM Embedded/5.4 2016q2/arm-none-eabi/lib/fpu/libc.a(lib_a-writer.o)
 .text._write_r
                0x01f4b070       0x48 C:/Program Files (x86)/GNU Tools ARM Embedded/5.4 2016q2/arm-none-eabi/lib/fpu/libc.a(lib_a-writer.o)
                0x01f4b070                _write_r
 .text          0x01f4b0b8        0x0 C:/Program Files (x86)/GNU Tools ARM Embedded/5.4 2016q2/arm-none-eabi/lib/fpu/libc.a(lib_a-callocr.o)
 .text._calloc_r
                0x01f4b0b8       0x98 C:/Program Files (x86)/GNU Tools ARM Embedded/5.4 2016q2/arm-none-eabi/lib/fpu/libc.a(lib_a-callocr.o)
                0x01f4b0b8                _calloc_r
 .text          0x01f4b150        0x0 C:/Program Files (x86)/GNU Tools ARM Embedded/5.4 2016q2/arm-none-eabi/lib/fpu/libc.a(lib_a-closer.o)
 .text._close_r
                0x01f4b150       0x3c C:/Program Files (x86)/GNU Tools ARM Embedded/5.4 2016q2/arm-none-eabi/lib/fpu/libc.a(lib_a-closer.o)
                0x01f4b150                _close_r
 .text          0x01f4b18c        0x0 C:/Program Files (x86)/GNU Tools ARM Embedded/5.4 2016q2/arm-none-eabi/lib/fpu/libc.a(lib_a-fclose.o)
 .text._fclose_r
                0x01f4b18c       0xfc C:/Program Files (x86)/GNU Tools ARM Embedded/5.4 2016q2/arm-none-eabi/lib/fpu/libc.a(lib_a-fclose.o)
                0x01f4b18c                _fclose_r
 .text.fclose   0x01f4b288       0x14 C:/Program Files (x86)/GNU Tools ARM Embedded/5.4 2016q2/arm-none-eabi/lib/fpu/libc.a(lib_a-fclose.o)
                0x01f4b288                fclose
 .text          0x01f4b29c        0x0 C:/Program Files (x86)/GNU Tools ARM Embedded/5.4 2016q2/arm-none-eabi/lib/fpu/libc.a(lib_a-fputwc.o)
 .text.__fputwc
                0x01f4b29c      0x110 C:/Program Files (x86)/GNU Tools ARM Embedded/5.4 2016q2/arm-none-eabi/lib/fpu/libc.a(lib_a-fputwc.o)
                0x01f4b29c                __fputwc
 .text._fputwc_r
                0x01f4b3ac       0x20 C:/Program Files (x86)/GNU Tools ARM Embedded/5.4 2016q2/arm-none-eabi/lib/fpu/libc.a(lib_a-fputwc.o)
                0x01f4b3ac                _fputwc_r
 .text.fputwc   0x01f4b3cc       0x68 C:/Program Files (x86)/GNU Tools ARM Embedded/5.4 2016q2/arm-none-eabi/lib/fpu/libc.a(lib_a-fputwc.o)
                0x01f4b3cc                fputwc
 .text          0x01f4b434        0x0 C:/Program Files (x86)/GNU Tools ARM Embedded/5.4 2016q2/arm-none-eabi/lib/fpu/libc.a(lib_a-fstatr.o)
 .text._fstat_r
                0x01f4b434       0x44 C:/Program Files (x86)/GNU Tools ARM Embedded/5.4 2016q2/arm-none-eabi/lib/fpu/libc.a(lib_a-fstatr.o)
                0x01f4b434                _fstat_r
 .text          0x01f4b478        0x0 C:/Program Files (x86)/GNU Tools ARM Embedded/5.4 2016q2/arm-none-eabi/lib/fpu/libc.a(lib_a-fvwrite.o)
 .text.__sfvwrite_r
                0x01f4b478      0x4c8 C:/Program Files (x86)/GNU Tools ARM Embedded/5.4 2016q2/arm-none-eabi/lib/fpu/libc.a(lib_a-fvwrite.o)
                0x01f4b478                __sfvwrite_r
 .text          0x01f4b940        0x0 C:/Program Files (x86)/GNU Tools ARM Embedded/5.4 2016q2/arm-none-eabi/lib/fpu/libc.a(lib_a-isattyr.o)
 .text._isatty_r
                0x01f4b940       0x3c C:/Program Files (x86)/GNU Tools ARM Embedded/5.4 2016q2/arm-none-eabi/lib/fpu/libc.a(lib_a-isattyr.o)
                0x01f4b940                _isatty_r
 .text          0x01f4b97c        0x0 C:/Program Files (x86)/GNU Tools ARM Embedded/5.4 2016q2/arm-none-eabi/lib/fpu/libc.a(lib_a-lseekr.o)
 .text._lseek_r
                0x01f4b97c       0x48 C:/Program Files (x86)/GNU Tools ARM Embedded/5.4 2016q2/arm-none-eabi/lib/fpu/libc.a(lib_a-lseekr.o)
                0x01f4b97c                _lseek_r
 .text          0x01f4b9c4        0x0 C:/Program Files (x86)/GNU Tools ARM Embedded/5.4 2016q2/arm-none-eabi/lib/fpu/libc.a(lib_a-readr.o)
 .text._read_r  0x01f4b9c4       0x48 C:/Program Files (x86)/GNU Tools ARM Embedded/5.4 2016q2/arm-none-eabi/lib/fpu/libc.a(lib_a-readr.o)
                0x01f4b9c4                _read_r
 .text          0x01f4ba0c        0x0 C:/Program Files (x86)/GNU Tools ARM Embedded/5.4 2016q2/arm-none-eabi/lib/fpu/libc.a(lib_a-wbuf.o)
 .text.__swbuf_r
                0x01f4ba0c      0x130 C:/Program Files (x86)/GNU Tools ARM Embedded/5.4 2016q2/arm-none-eabi/lib/fpu/libc.a(lib_a-wbuf.o)
                0x01f4ba0c                __swbuf_r
 .text.__swbuf  0x01f4bb3c       0x18 C:/Program Files (x86)/GNU Tools ARM Embedded/5.4 2016q2/arm-none-eabi/lib/fpu/libc.a(lib_a-wbuf.o)
                0x01f4bb3c                __swbuf
 .text          0x01f4bb54        0x0 C:/Program Files (x86)/GNU Tools ARM Embedded/5.4 2016q2/arm-none-eabi/lib/fpu/libc.a(lib_a-wcrtomb.o)
 .text._wcrtomb_r
                0x01f4bb54       0x94 C:/Program Files (x86)/GNU Tools ARM Embedded/5.4 2016q2/arm-none-eabi/lib/fpu/libc.a(lib_a-wcrtomb.o)
                0x01f4bb54                _wcrtomb_r
 .text.wcrtomb  0x01f4bbe8       0x9c C:/Program Files (x86)/GNU Tools ARM Embedded/5.4 2016q2/arm-none-eabi/lib/fpu/libc.a(lib_a-wcrtomb.o)
                0x01f4bbe8                wcrtomb
 .text          0x01f4bc84        0x0 C:/Program Files (x86)/GNU Tools ARM Embedded/5.4 2016q2/arm-none-eabi/lib/fpu/libc.a(lib_a-wctomb_r.o)
 .text.__ascii_wctomb
                0x01f4bc84       0x28 C:/Program Files (x86)/GNU Tools ARM Embedded/5.4 2016q2/arm-none-eabi/lib/fpu/libc.a(lib_a-wctomb_r.o)
                0x01f4bc84                __ascii_wctomb
 .text._wctomb_r
                0x01f4bcac       0x50 C:/Program Files (x86)/GNU Tools ARM Embedded/5.4 2016q2/arm-none-eabi/lib/fpu/libc.a(lib_a-wctomb_r.o)
                0x01f4bcac                _wctomb_r
 .text          0x01f4bcfc      0x114 C:/Program Files (x86)/GNU Tools ARM Embedded/5.4 2016q2/lib/gcc/arm-none-eabi/5.4.1/fpu/libgcc.a(_udivsi3.o)
                0x01f4bcfc                __aeabi_uidiv
                0x01f4bcfc                __udivsi3
                0x01f4bdf0                __aeabi_uidivmod
 .text          0x01f4be10      0x148 C:/Program Files (x86)/GNU Tools ARM Embedded/5.4 2016q2/lib/gcc/arm-none-eabi/5.4.1/fpu/libgcc.a(_divsi3.o)
                0x01f4be10                __divsi3
                0x01f4be10                __aeabi_idiv
                0x01f4bf38                __aeabi_idivmod
 .text          0x01f4bf58        0x4 C:/Program Files (x86)/GNU Tools ARM Embedded/5.4 2016q2/lib/gcc/arm-none-eabi/5.4.1/fpu/libgcc.a(_dvmd_tls.o)
                0x01f4bf58                __aeabi_idiv0
                0x01f4bf58                __aeabi_ldiv0
 .text          0x01f4bf5c       0x3c C:/Program Files (x86)/GNU Tools ARM Embedded/5.4 2016q2/lib/gcc/arm-none-eabi/5.4.1/fpu/libgcc.a(_aeabi_uldivmod.o)
                0x01f4bf5c                __aeabi_uldivmod
 .text          0x01f4bf98      0x12c C:/Program Files (x86)/GNU Tools ARM Embedded/5.4 2016q2/lib/gcc/arm-none-eabi/5.4.1/fpu/libgcc.a(_udivmoddi4.o)
                0x01f4bf98                __udivmoddi4
 .text          0x01f4c0c4       0x28 C:/Program Files (x86)/GNU Tools ARM Embedded/5.4 2016q2/lib/gcc/arm-none-eabi/5.4.1/fpu/libgcc.a(_clzdi2.o)
                0x01f4c0c4                __clzdi2
 .text          0x01f4c0ec       0x48 C:/Program Files (x86)/GNU Tools ARM Embedded/5.4 2016q2/lib/gcc/arm-none-eabi/5.4.1/fpu/libgcc.a(_clzsi2.o)
                0x01f4c0ec                __clzsi2
 .text          0x01f4c134        0x0 uspi/lib/libuspi.a(uspilibrary.o)
 .text.USPiInitialize
                0x01f4c134      0x214 uspi/lib/libuspi.a(uspilibrary.o)
                0x01f4c134                USPiInitialize
 .text.USPiKeyboardAvailable
                0x01f4c348       0x1c uspi/lib/libuspi.a(uspilibrary.o)
                0x01f4c348                USPiKeyboardAvailable
 .text.USPiKeyboardRegisterKeyPressedHandler
                0x01f4c364       0x18 uspi/lib/libuspi.a(uspilibrary.o)
                0x01f4c364                USPiKeyboardRegisterKeyPressedHandler
 .text.USPiKeyboardRegisterShutdownHandler
                0x01f4c37c       0x18 uspi/lib/libuspi.a(uspilibrary.o)
                0x01f4c37c                USPiKeyboardRegisterShutdownHandler
 .text.USPiKeyboardRegisterKeyStatusHandlerRaw
                0x01f4c394       0x18 uspi/lib/libuspi.a(uspilibrary.o)
                0x01f4c394                USPiKeyboardRegisterKeyStatusHandlerRaw
 .text.USPiMouseAvailable
                0x01f4c3ac       0x1c uspi/lib/libuspi.a(uspilibrary.o)
                0x01f4c3ac                USPiMouseAvailable
 .text.USPiMouseRegisterStatusHandler
                0x01f4c3c8       0x18 uspi/lib/libuspi.a(uspilibrary.o)
                0x01f4c3c8                USPiMouseRegisterStatusHandler
 .text.USPiMassStorageDeviceAvailable
                0x01f4c3e0       0x5c uspi/lib/libuspi.a(uspilibrary.o)
                0x01f4c3e0                USPiMassStorageDeviceAvailable
 .text.USPiMassStorageDeviceRead
                0x01f4c43c       0x74 uspi/lib/libuspi.a(uspilibrary.o)
                0x01f4c43c                USPiMassStorageDeviceRead
 .text.USPiMassStorageDeviceWrite
                0x01f4c4b0       0x74 uspi/lib/libuspi.a(uspilibrary.o)
                0x01f4c4b0                USPiMassStorageDeviceWrite
 .text.USPiMassStorageDeviceGetCapacity
                0x01f4c524       0x30 uspi/lib/libuspi.a(uspilibrary.o)
                0x01f4c524                USPiMassStorageDeviceGetCapacity
 .text.USPiEthernetAvailable
                0x01f4c554       0x30 uspi/lib/libuspi.a(uspilibrary.o)
                0x01f4c554                USPiEthernetAvailable
 .text.USPiGetMACAddress
                0x01f4c584       0x44 uspi/lib/libuspi.a(uspilibrary.o)
                0x01f4c584                USPiGetMACAddress
 .text.USPiSendFrame
                0x01f4c5c8       0x4c uspi/lib/libuspi.a(uspilibrary.o)
                0x01f4c5c8                USPiSendFrame
 .text.USPiReceiveFrame
                0x01f4c614       0x4c uspi/lib/libuspi.a(uspilibrary.o)
                0x01f4c614                USPiReceiveFrame
 .text.USPiGamePadAvailable
                0x01f4c660       0x5c uspi/lib/libuspi.a(uspilibrary.o)
                0x01f4c660                USPiGamePadAvailable
 .text.USPiGamePadRegisterStatusHandler
                0x01f4c6bc       0x40 uspi/lib/libuspi.a(uspilibrary.o)
                0x01f4c6bc                USPiGamePadRegisterStatusHandler
 .text.USPiGamePadGetStatus
                0x01f4c6fc       0x44 uspi/lib/libuspi.a(uspilibrary.o)
                0x01f4c6fc                USPiGamePadGetStatus
 .text.USPiMIDIAvailable
                0x01f4c740       0x1c uspi/lib/libuspi.a(uspilibrary.o)
                0x01f4c740                USPiMIDIAvailable
 .text.USPiMIDIRegisterPacketHandler
                0x01f4c75c       0x18 uspi/lib/libuspi.a(uspilibrary.o)
                0x01f4c75c                USPiMIDIRegisterPacketHandler
 .text.USPiDeviceGetInformation
                0x01f4c774      0x15c uspi/lib/libuspi.a(uspilibrary.o)
                0x01f4c774                USPiDeviceGetInformation
 .text          0x01f4c8d0        0x0 uspi/lib/libuspi.a(dwhcidevice.o)
 .text.DWHCIDeviceCompletionRoutine
                0x01f4c8d0        0xc uspi/lib/libuspi.a(dwhcidevice.o)
                0x01f4c8d0                DWHCIDeviceCompletionRoutine
 .text.DWHCIDevice
                0x01f4c8dc       0x68 uspi/lib/libuspi.a(dwhcidevice.o)
                0x01f4c8dc                DWHCIDevice
 .text._DWHCIDevice
                0x01f4c944        0x8 uspi/lib/libuspi.a(dwhcidevice.o)
                0x01f4c944                _DWHCIDevice
 .text.DWHCIDeviceInitHost
                0x01f4c94c      0x314 uspi/lib/libuspi.a(dwhcidevice.o)
                0x01f4c94c                DWHCIDeviceInitHost
 .text.DWHCIDeviceEnableRootPort
                0x01f4cc60       0xcc uspi/lib/libuspi.a(dwhcidevice.o)
                0x01f4cc60                DWHCIDeviceEnableRootPort
 .text.DWHCIDeviceReset
                0x01f4cd2c       0xb8 uspi/lib/libuspi.a(dwhcidevice.o)
                0x01f4cd2c                DWHCIDeviceReset
 .text.DWHCIDeviceInitCore
                0x01f4cde4      0x1f4 uspi/lib/libuspi.a(dwhcidevice.o)
                0x01f4cde4                DWHCIDeviceInitCore
 .text.DWHCIDeviceInitialize
                0x01f4cfd8      0x1f4 uspi/lib/libuspi.a(dwhcidevice.o)
                0x01f4cfd8                DWHCIDeviceInitialize
 .text.DWHCIDeviceEnableGlobalInterrupts
                0x01f4d1cc       0x44 uspi/lib/libuspi.a(dwhcidevice.o)
                0x01f4d1cc                DWHCIDeviceEnableGlobalInterrupts
 .text.DWHCIDeviceEnableCommonInterrupts
                0x01f4d210       0x38 uspi/lib/libuspi.a(dwhcidevice.o)
                0x01f4d210                DWHCIDeviceEnableCommonInterrupts
 .text.DWHCIDeviceEnableHostInterrupts
                0x01f4d248       0x78 uspi/lib/libuspi.a(dwhcidevice.o)
                0x01f4d248                DWHCIDeviceEnableHostInterrupts
 .text.DWHCIDeviceEnableChannelInterrupt
                0x01f4d2c0       0x54 uspi/lib/libuspi.a(dwhcidevice.o)
                0x01f4d2c0                DWHCIDeviceEnableChannelInterrupt
 .text.DWHCIDeviceDisableChannelInterrupt
                0x01f4d314       0x54 uspi/lib/libuspi.a(dwhcidevice.o)
                0x01f4d314                DWHCIDeviceDisableChannelInterrupt
 .text.DWHCIDeviceFlushTxFIFO
                0x01f4d368       0x94 uspi/lib/libuspi.a(dwhcidevice.o)
                0x01f4d368                DWHCIDeviceFlushTxFIFO
 .text.DWHCIDeviceFlushRxFIFO
                0x01f4d3fc       0x78 uspi/lib/libuspi.a(dwhcidevice.o)
                0x01f4d3fc                DWHCIDeviceFlushRxFIFO
 .text.DWHCIDeviceStartChannel
                0x01f4d474      0x37c uspi/lib/libuspi.a(dwhcidevice.o)
                0x01f4d474                DWHCIDeviceStartChannel
 .text.DWHCIDeviceStartTransaction
                0x01f4d7f0       0xd0 uspi/lib/libuspi.a(dwhcidevice.o)
                0x01f4d7f0                DWHCIDeviceStartTransaction
 .text.DWHCIDeviceTimerHandler
                0x01f4d8c0       0x68 uspi/lib/libuspi.a(dwhcidevice.o)
                0x01f4d8c0                DWHCIDeviceTimerHandler
 .text.DWHCIDeviceTransferStageAsync
                0x01f4d928      0x1ec uspi/lib/libuspi.a(dwhcidevice.o)
                0x01f4d928                DWHCIDeviceTransferStageAsync
 .text.DWHCIDeviceSubmitAsyncRequest
                0x01f4db14       0x44 uspi/lib/libuspi.a(dwhcidevice.o)
                0x01f4db14                DWHCIDeviceSubmitAsyncRequest
 .text.DWHCIDeviceTransferStage
                0x01f4db58       0x70 uspi/lib/libuspi.a(dwhcidevice.o)
                0x01f4db58                DWHCIDeviceTransferStage
 .text.DWHCIDeviceSubmitBlockingRequest
                0x01f4dbc8      0x360 uspi/lib/libuspi.a(dwhcidevice.o)
                0x01f4dbc8                DWHCIDeviceSubmitBlockingRequest
 .text.DWHCIDeviceControlMessage
                0x01f4df28       0xa0 uspi/lib/libuspi.a(dwhcidevice.o)
                0x01f4df28                DWHCIDeviceControlMessage
 .text.DWHCIDeviceTransfer
                0x01f4dfc8       0x58 uspi/lib/libuspi.a(dwhcidevice.o)
                0x01f4dfc8                DWHCIDeviceTransfer
 .text.DWHCIDeviceGetDescriptor
                0x01f4e020       0xac uspi/lib/libuspi.a(dwhcidevice.o)
                0x01f4e020                DWHCIDeviceGetDescriptor
 .text.DWHCIDeviceSetAddress
                0x01f4e0cc       0xc4 uspi/lib/libuspi.a(dwhcidevice.o)
                0x01f4e0cc                DWHCIDeviceSetAddress
 .text.DWHCIDeviceSetConfiguration
                0x01f4e190       0xc4 uspi/lib/libuspi.a(dwhcidevice.o)
                0x01f4e190                DWHCIDeviceSetConfiguration
 .text.DWHCIDeviceChannelInterruptHandler
                0x01f4e254      0x4d8 uspi/lib/libuspi.a(dwhcidevice.o)
                0x01f4e254                DWHCIDeviceChannelInterruptHandler
 .text.DWHCIDeviceInterruptHandler
                0x01f4e72c       0xf8 uspi/lib/libuspi.a(dwhcidevice.o)
                0x01f4e72c                DWHCIDeviceInterruptHandler
 .text.DWHCIDeviceAllocateChannel
                0x01f4e824       0x74 uspi/lib/libuspi.a(dwhcidevice.o)
                0x01f4e824                DWHCIDeviceAllocateChannel
 .text.DWHCIDeviceFreeChannel
                0x01f4e898       0x28 uspi/lib/libuspi.a(dwhcidevice.o)
                0x01f4e898                DWHCIDeviceFreeChannel
 .text.DWHCIDeviceWaitForBit
                0x01f4e8c0       0x5c uspi/lib/libuspi.a(dwhcidevice.o)
                0x01f4e8c0                DWHCIDeviceWaitForBit
 .text.DWHCIDeviceGetPortSpeed
                0x01f4e91c       0x4c uspi/lib/libuspi.a(dwhcidevice.o)
                0x01f4e91c                DWHCIDeviceGetPortSpeed
 .text.DWHCIDeviceOvercurrentDetected
                0x01f4e968       0x4c uspi/lib/libuspi.a(dwhcidevice.o)
                0x01f4e968                DWHCIDeviceOvercurrentDetected
 .text.DWHCIDeviceDisableRootPort
                0x01f4e9b4       0x44 uspi/lib/libuspi.a(dwhcidevice.o)
                0x01f4e9b4                DWHCIDeviceDisableRootPort
 .text          0x01f4e9f8        0x0 uspi/lib/libuspi.a(dwhciregister.o)
 .text.DWHCIRegister
                0x01f4e9f8       0x10 uspi/lib/libuspi.a(dwhciregister.o)
                0x01f4e9f8                DWHCIRegister
 .text.DWHCIRegister2
                0x01f4ea08       0x10 uspi/lib/libuspi.a(dwhciregister.o)
                0x01f4ea08                DWHCIRegister2
 .text._DWHCIRegister
                0x01f4ea18        0xc uspi/lib/libuspi.a(dwhciregister.o)
                0x01f4ea18                _DWHCIRegister
 .text.DWHCIRegisterRead
                0x01f4ea24       0x1c uspi/lib/libuspi.a(dwhciregister.o)
                0x01f4ea24                DWHCIRegisterRead
 .text.DWHCIRegisterWrite
                0x01f4ea40       0x10 uspi/lib/libuspi.a(dwhciregister.o)
                0x01f4ea40                DWHCIRegisterWrite
 .text.DWHCIRegisterGet
                0x01f4ea50        0x8 uspi/lib/libuspi.a(dwhciregister.o)
                0x01f4ea50                DWHCIRegisterGet
 .text.DWHCIRegisterSet
                0x01f4ea58       0x10 uspi/lib/libuspi.a(dwhciregister.o)
                0x01f4ea58                DWHCIRegisterSet
 .text.DWHCIRegisterIsSet
                0x01f4ea68       0x14 uspi/lib/libuspi.a(dwhciregister.o)
                0x01f4ea68                DWHCIRegisterIsSet
 .text.DWHCIRegisterAnd
                0x01f4ea7c       0x10 uspi/lib/libuspi.a(dwhciregister.o)
                0x01f4ea7c                DWHCIRegisterAnd
 .text.DWHCIRegisterOr
                0x01f4ea8c       0x10 uspi/lib/libuspi.a(dwhciregister.o)
                0x01f4ea8c                DWHCIRegisterOr
 .text.DWHCIRegisterClearBit
                0x01f4ea9c       0x14 uspi/lib/libuspi.a(dwhciregister.o)
                0x01f4ea9c                DWHCIRegisterClearBit
 .text.DWHCIRegisterSetBit
                0x01f4eab0       0x14 uspi/lib/libuspi.a(dwhciregister.o)
                0x01f4eab0                DWHCIRegisterSetBit
 .text.DWHCIRegisterClearAll
                0x01f4eac4       0x14 uspi/lib/libuspi.a(dwhciregister.o)
                0x01f4eac4                DWHCIRegisterClearAll
 .text.DWHCIRegisterSetAll
                0x01f4ead8       0x14 uspi/lib/libuspi.a(dwhciregister.o)
                0x01f4ead8                DWHCIRegisterSetAll
 .text          0x01f4eaec        0x0 uspi/lib/libuspi.a(dwhcixferstagedata.o)
 .text.DWHCITransferStageData
                0x01f4eaec      0x1d0 uspi/lib/libuspi.a(dwhcixferstagedata.o)
                0x01f4eaec                DWHCITransferStageData
 .text._DWHCITransferStageData
                0x01f4ecbc       0x5c uspi/lib/libuspi.a(dwhcixferstagedata.o)
                0x01f4ecbc                _DWHCITransferStageData
 .text.DWHCITransferStageDataTransactionComplete
                0x01f4ed18       0xf0 uspi/lib/libuspi.a(dwhcixferstagedata.o)
                0x01f4ed18                DWHCITransferStageDataTransactionComplete
 .text.DWHCITransferStageDataSetSplitComplete
                0x01f4ee08        0x8 uspi/lib/libuspi.a(dwhcixferstagedata.o)
                0x01f4ee08                DWHCITransferStageDataSetSplitComplete
 .text.DWHCITransferStageDataSetState
                0x01f4ee10        0x8 uspi/lib/libuspi.a(dwhcixferstagedata.o)
                0x01f4ee10                DWHCITransferStageDataSetState
 .text.DWHCITransferStageDataGetState
                0x01f4ee18        0x8 uspi/lib/libuspi.a(dwhcixferstagedata.o)
                0x01f4ee18                DWHCITransferStageDataGetState
 .text.DWHCITransferStageDataSetSubState
                0x01f4ee20        0x8 uspi/lib/libuspi.a(dwhcixferstagedata.o)
                0x01f4ee20                DWHCITransferStageDataSetSubState
 .text.DWHCITransferStageDataGetSubState
                0x01f4ee28        0x8 uspi/lib/libuspi.a(dwhcixferstagedata.o)
                0x01f4ee28                DWHCITransferStageDataGetSubState
 .text.DWHCITransferStageDataBeginSplitCycle
                0x01f4ee30        0x8 uspi/lib/libuspi.a(dwhcixferstagedata.o)
                0x01f4ee30                DWHCITransferStageDataBeginSplitCycle
 .text.DWHCITransferStageDataGetChannelNumber
                0x01f4ee38        0x8 uspi/lib/libuspi.a(dwhcixferstagedata.o)
                0x01f4ee38                DWHCITransferStageDataGetChannelNumber
 .text.DWHCITransferStageDataIsPeriodic
                0x01f4ee40       0x24 uspi/lib/libuspi.a(dwhcixferstagedata.o)
                0x01f4ee40                DWHCITransferStageDataIsPeriodic
 .text.DWHCITransferStageDataGetDeviceAddress
                0x01f4ee64        0x8 uspi/lib/libuspi.a(dwhcixferstagedata.o)
                0x01f4ee64                DWHCITransferStageDataGetDeviceAddress
 .text.DWHCITransferStageDataGetEndpointType
                0x01f4ee6c       0x2c uspi/lib/libuspi.a(dwhcixferstagedata.o)
                0x01f4ee6c                DWHCITransferStageDataGetEndpointType
 .text.DWHCITransferStageDataGetEndpointNumber
                0x01f4ee98        0x8 uspi/lib/libuspi.a(dwhcixferstagedata.o)
                0x01f4ee98                DWHCITransferStageDataGetEndpointNumber
 .text.DWHCITransferStageDataGetMaxPacketSize
                0x01f4eea0        0x8 uspi/lib/libuspi.a(dwhcixferstagedata.o)
                0x01f4eea0                DWHCITransferStageDataGetMaxPacketSize
 .text.DWHCITransferStageDataGetSpeed
                0x01f4eea8        0x8 uspi/lib/libuspi.a(dwhcixferstagedata.o)
                0x01f4eea8                DWHCITransferStageDataGetSpeed
 .text.DWHCITransferStageDataGetPID
                0x01f4eeb0       0x30 uspi/lib/libuspi.a(dwhcixferstagedata.o)
                0x01f4eeb0                DWHCITransferStageDataGetPID
 .text.DWHCITransferStageDataIsDirectionIn
                0x01f4eee0        0x8 uspi/lib/libuspi.a(dwhcixferstagedata.o)
                0x01f4eee0                DWHCITransferStageDataIsDirectionIn
 .text.DWHCITransferStageDataIsStatusStage
                0x01f4eee8        0x8 uspi/lib/libuspi.a(dwhcixferstagedata.o)
                0x01f4eee8                DWHCITransferStageDataIsStatusStage
 .text.DWHCITransferStageDataGetDMAAddress
                0x01f4eef0        0x8 uspi/lib/libuspi.a(dwhcixferstagedata.o)
                0x01f4eef0                DWHCITransferStageDataGetDMAAddress
 .text.DWHCITransferStageDataGetBytesToTransfer
                0x01f4eef8        0x8 uspi/lib/libuspi.a(dwhcixferstagedata.o)
                0x01f4eef8                DWHCITransferStageDataGetBytesToTransfer
 .text.DWHCITransferStageDataGetPacketsToTransfer
                0x01f4ef00        0x8 uspi/lib/libuspi.a(dwhcixferstagedata.o)
                0x01f4ef00                DWHCITransferStageDataGetPacketsToTransfer
 .text.DWHCITransferStageDataIsSplit
                0x01f4ef08        0x8 uspi/lib/libuspi.a(dwhcixferstagedata.o)
                0x01f4ef08                DWHCITransferStageDataIsSplit
 .text.DWHCITransferStageDataIsSplitComplete
                0x01f4ef10        0x8 uspi/lib/libuspi.a(dwhcixferstagedata.o)
                0x01f4ef10                DWHCITransferStageDataIsSplitComplete
 .text.DWHCITransferStageDataGetHubAddress
                0x01f4ef18        0x8 uspi/lib/libuspi.a(dwhcixferstagedata.o)
                0x01f4ef18                DWHCITransferStageDataGetHubAddress
 .text.DWHCITransferStageDataGetHubPortAddress
                0x01f4ef20        0x8 uspi/lib/libuspi.a(dwhcixferstagedata.o)
                0x01f4ef20                DWHCITransferStageDataGetHubPortAddress
 .text.DWHCITransferStageDataGetSplitPosition
                0x01f4ef28        0x8 uspi/lib/libuspi.a(dwhcixferstagedata.o)
                0x01f4ef28                DWHCITransferStageDataGetSplitPosition
 .text.DWHCITransferStageDataGetStatusMask
                0x01f4ef30       0x38 uspi/lib/libuspi.a(dwhcixferstagedata.o)
                0x01f4ef30                DWHCITransferStageDataGetStatusMask
 .text.DWHCITransferStageDataGetTransactionStatus
                0x01f4ef68        0x8 uspi/lib/libuspi.a(dwhcixferstagedata.o)
                0x01f4ef68                DWHCITransferStageDataGetTransactionStatus
 .text.DWHCITransferStageDataIsStageComplete
                0x01f4ef70       0x10 uspi/lib/libuspi.a(dwhcixferstagedata.o)
                0x01f4ef70                DWHCITransferStageDataIsStageComplete
 .text.DWHCITransferStageDataGetResultLen
                0x01f4ef80       0x14 uspi/lib/libuspi.a(dwhcixferstagedata.o)
                0x01f4ef80                DWHCITransferStageDataGetResultLen
 .text.DWHCITransferStageDataGetURB
                0x01f4ef94        0x8 uspi/lib/libuspi.a(dwhcixferstagedata.o)
                0x01f4ef94                DWHCITransferStageDataGetURB
 .text.DWHCITransferStageDataGetFrameScheduler
                0x01f4ef9c        0x8 uspi/lib/libuspi.a(dwhcixferstagedata.o)
                0x01f4ef9c                DWHCITransferStageDataGetFrameScheduler
 .text          0x01f4efa4        0x0 uspi/lib/libuspi.a(usbdevice.o)
 .text.USBDeviceConfigure
                0x01f4efa4       0x64 uspi/lib/libuspi.a(usbdevice.o)
                0x01f4efa4                USBDeviceConfigure
 .text.USBDevice
                0x01f4f008       0x70 uspi/lib/libuspi.a(usbdevice.o)
                0x01f4f008                USBDevice
 .text.USBDeviceCopy
                0x01f4f078       0xf4 uspi/lib/libuspi.a(usbdevice.o)
                0x01f4f078                USBDeviceCopy
 .text._USBDevice
                0x01f4f16c       0x98 uspi/lib/libuspi.a(usbdevice.o)
                0x01f4f16c                _USBDevice
 .text.USBDeviceInitialize
                0x01f4f204      0x304 uspi/lib/libuspi.a(usbdevice.o)
                0x01f4f204                USBDeviceInitialize
 .text.USBDeviceGetName
                0x01f4f508       0xf4 uspi/lib/libuspi.a(usbdevice.o)
                0x01f4f508                USBDeviceGetName
 .text.USBDeviceGetAddress
                0x01f4f5fc        0x8 uspi/lib/libuspi.a(usbdevice.o)
                0x01f4f5fc                USBDeviceGetAddress
 .text.USBDeviceGetSpeed
                0x01f4f604        0x8 uspi/lib/libuspi.a(usbdevice.o)
                0x01f4f604                USBDeviceGetSpeed
 .text.USBDeviceGetHubAddress
                0x01f4f60c        0x8 uspi/lib/libuspi.a(usbdevice.o)
                0x01f4f60c                USBDeviceGetHubAddress
 .text.USBDeviceGetHubPortNumber
                0x01f4f614        0x8 uspi/lib/libuspi.a(usbdevice.o)
                0x01f4f614                USBDeviceGetHubPortNumber
 .text.USBDeviceGetEndpoint0
                0x01f4f61c        0x8 uspi/lib/libuspi.a(usbdevice.o)
                0x01f4f61c                USBDeviceGetEndpoint0
 .text.USBDeviceGetHost
                0x01f4f624        0x8 uspi/lib/libuspi.a(usbdevice.o)
                0x01f4f624                USBDeviceGetHost
 .text.USBDeviceGetDeviceDescriptor
                0x01f4f62c        0x8 uspi/lib/libuspi.a(usbdevice.o)
                0x01f4f62c                USBDeviceGetDeviceDescriptor
 .text.USBDeviceGetConfigurationDescriptor
                0x01f4f634        0x8 uspi/lib/libuspi.a(usbdevice.o)
                0x01f4f634                USBDeviceGetConfigurationDescriptor
 .text.USBDeviceGetDescriptor
                0x01f4f63c        0x8 uspi/lib/libuspi.a(usbdevice.o)
                0x01f4f63c                USBDeviceGetDescriptor
 .text.USBDeviceConfigurationError
                0x01f4f644        0x8 uspi/lib/libuspi.a(usbdevice.o)
                0x01f4f644                USBDeviceConfigurationError
 .text.USBDeviceSetAddress
                0x01f4f64c        0x8 uspi/lib/libuspi.a(usbdevice.o)
                0x01f4f64c                USBDeviceSetAddress
 .text          0x01f4f654        0x0 uspi/lib/libuspi.a(usbendpoint.o)
 .text.USBEndpoint
                0x01f4f654       0x2c uspi/lib/libuspi.a(usbendpoint.o)
                0x01f4f654                USBEndpoint
 .text.USBEndpoint2
                0x01f4f680       0xf8 uspi/lib/libuspi.a(usbendpoint.o)
                0x01f4f680                USBEndpoint2
 .text.USBEndpointCopy
                0x01f4f778       0x3c uspi/lib/libuspi.a(usbendpoint.o)
                0x01f4f778                USBEndpointCopy
 .text._USBEndpoint
                0x01f4f7b4        0xc uspi/lib/libuspi.a(usbendpoint.o)
                0x01f4f7b4                _USBEndpoint
 .text.USBEndpointGetDevice
                0x01f4f7c0        0x8 uspi/lib/libuspi.a(usbendpoint.o)
                0x01f4f7c0                USBEndpointGetDevice
 .text.USBEndpointGetNumber
                0x01f4f7c8        0x8 uspi/lib/libuspi.a(usbendpoint.o)
                0x01f4f7c8                USBEndpointGetNumber
 .text.USBEndpointGetType
                0x01f4f7d0        0x8 uspi/lib/libuspi.a(usbendpoint.o)
                0x01f4f7d0                USBEndpointGetType
 .text.USBEndpointIsDirectionIn
                0x01f4f7d8        0x8 uspi/lib/libuspi.a(usbendpoint.o)
                0x01f4f7d8                USBEndpointIsDirectionIn
 .text.USBEndpointSetMaxPacketSize
                0x01f4f7e0        0x8 uspi/lib/libuspi.a(usbendpoint.o)
                0x01f4f7e0                USBEndpointSetMaxPacketSize
 .text.USBEndpointGetMaxPacketSize
                0x01f4f7e8        0x8 uspi/lib/libuspi.a(usbendpoint.o)
                0x01f4f7e8                USBEndpointGetMaxPacketSize
 .text.USBEndpointGetInterval
                0x01f4f7f0        0x8 uspi/lib/libuspi.a(usbendpoint.o)
                0x01f4f7f0                USBEndpointGetInterval
 .text.USBEndpointGetNextPID
                0x01f4f7f8       0x10 uspi/lib/libuspi.a(usbendpoint.o)
                0x01f4f7f8                USBEndpointGetNextPID
 .text.USBEndpointSkipPID
                0x01f4f808       0x54 uspi/lib/libuspi.a(usbendpoint.o)
                0x01f4f808                USBEndpointSkipPID
 .text.USBEndpointResetPID
                0x01f4f85c        0xc uspi/lib/libuspi.a(usbendpoint.o)
                0x01f4f85c                USBEndpointResetPID
 .text          0x01f4f868        0x0 uspi/lib/libuspi.a(usbrequest.o)
 .text.USBRequest
                0x01f4f868       0x34 uspi/lib/libuspi.a(usbrequest.o)
                0x01f4f868                USBRequest
 .text._USBRequest
                0x01f4f89c       0x18 uspi/lib/libuspi.a(usbrequest.o)
                0x01f4f89c                _USBRequest
 .text.USBRequestGetEndpoint
                0x01f4f8b4        0x8 uspi/lib/libuspi.a(usbrequest.o)
                0x01f4f8b4                USBRequestGetEndpoint
 .text.USBRequestSetStatus
                0x01f4f8bc        0x8 uspi/lib/libuspi.a(usbrequest.o)
                0x01f4f8bc                USBRequestSetStatus
 .text.USBRequestSetResultLen
                0x01f4f8c4        0x8 uspi/lib/libuspi.a(usbrequest.o)
                0x01f4f8c4                USBRequestSetResultLen
 .text.USBRequestGetStatus
                0x01f4f8cc        0x8 uspi/lib/libuspi.a(usbrequest.o)
                0x01f4f8cc                USBRequestGetStatus
 .text.USBRequestGetResultLength
                0x01f4f8d4        0x8 uspi/lib/libuspi.a(usbrequest.o)
                0x01f4f8d4                USBRequestGetResultLength
 .text.USBRequestGetSetupData
                0x01f4f8dc        0x8 uspi/lib/libuspi.a(usbrequest.o)
                0x01f4f8dc                USBRequestGetSetupData
 .text.USBRequestGetBuffer
                0x01f4f8e4        0x8 uspi/lib/libuspi.a(usbrequest.o)
                0x01f4f8e4                USBRequestGetBuffer
 .text.USBRequestGetBufLen
                0x01f4f8ec        0x8 uspi/lib/libuspi.a(usbrequest.o)
                0x01f4f8ec                USBRequestGetBufLen
 .text.USBRequestSetCompletionRoutine
                0x01f4f8f4       0x10 uspi/lib/libuspi.a(usbrequest.o)
                0x01f4f8f4                USBRequestSetCompletionRoutine
 .text.USBRequestCallCompletionRoutine
                0x01f4f904       0x1c uspi/lib/libuspi.a(usbrequest.o)
                0x01f4f904                USBRequestCallCompletionRoutine
 .text          0x01f4f920        0x0 uspi/lib/libuspi.a(devicenameservice.o)
 .text.DeviceNameService
                0x01f4f920       0x18 uspi/lib/libuspi.a(devicenameservice.o)
                0x01f4f920                DeviceNameService
 .text._DeviceNameService
                0x01f4f938       0x58 uspi/lib/libuspi.a(devicenameservice.o)
                0x01f4f938                _DeviceNameService
 .text.DeviceNameServiceAddDevice
                0x01f4f990       0x54 uspi/lib/libuspi.a(devicenameservice.o)
                0x01f4f990                DeviceNameServiceAddDevice
 .text.DeviceNameServiceGetDevice
                0x01f4f9e4       0x54 uspi/lib/libuspi.a(devicenameservice.o)
                0x01f4f9e4                DeviceNameServiceGetDevice
 .text.DeviceNameServiceGet
                0x01f4fa38       0x10 uspi/lib/libuspi.a(devicenameservice.o)
                0x01f4fa38                DeviceNameServiceGet
 .text          0x01f4fa48        0x0 uspi/lib/libuspi.a(macaddress.o)
 .text.MACAddress
                0x01f4fa48        0xc uspi/lib/libuspi.a(macaddress.o)
                0x01f4fa48                MACAddress
 .text.MACAddress2
                0x01f4fa54       0x20 uspi/lib/libuspi.a(macaddress.o)
                0x01f4fa54                MACAddress2
 .text._MACAddress
                0x01f4fa74        0xc uspi/lib/libuspi.a(macaddress.o)
                0x01f4fa74                _MACAddress
 .text.MACAddressIsEqual
                0x01f4fa80       0x20 uspi/lib/libuspi.a(macaddress.o)
                0x01f4fa80                MACAddressIsEqual
 .text.MACAddressSet
                0x01f4faa0       0x20 uspi/lib/libuspi.a(macaddress.o)
                0x01f4faa0                MACAddressSet
 .text.MACAddressSetBroadcast
                0x01f4fac0       0x24 uspi/lib/libuspi.a(macaddress.o)
                0x01f4fac0                MACAddressSetBroadcast
 .text.MACAddressGet
                0x01f4fae4        0x8 uspi/lib/libuspi.a(macaddress.o)
                0x01f4fae4                MACAddressGet
 .text.MACAddressCopyTo
                0x01f4faec       0x14 uspi/lib/libuspi.a(macaddress.o)
                0x01f4faec                MACAddressCopyTo
 .text.MACAddressIsBroadcast
                0x01f4fb00       0x58 uspi/lib/libuspi.a(macaddress.o)
                0x01f4fb00                MACAddressIsBroadcast
 .text.MACAddressGetSize
                0x01f4fb58        0x8 uspi/lib/libuspi.a(macaddress.o)
                0x01f4fb58                MACAddressGetSize
 .text.MACAddressFormat
                0x01f4fb60       0x48 uspi/lib/libuspi.a(macaddress.o)
                0x01f4fb60                MACAddressFormat
 .text          0x01f4fba8        0x0 uspi/lib/libuspi.a(smsc951x.o)
 .text.SMSC951xDevice
                0x01f4fba8       0x38 uspi/lib/libuspi.a(smsc951x.o)
                0x01f4fba8                SMSC951xDevice
 .text._SMSC951xDevice
                0x01f4fbe0       0x6c uspi/lib/libuspi.a(smsc951x.o)
                0x01f4fbe0                _SMSC951xDevice
 .text.SMSC951xDeviceGetMACAddress
                0x01f4fc4c        0x8 uspi/lib/libuspi.a(smsc951x.o)
                0x01f4fc4c                SMSC951xDeviceGetMACAddress
 .text.SMSC951xDeviceSendFrame
                0x01f4fc54       0x5c uspi/lib/libuspi.a(smsc951x.o)
                0x01f4fc54                SMSC951xDeviceSendFrame
 .text.SMSC951xDeviceReceiveFrame
                0x01f4fcb0       0xe8 uspi/lib/libuspi.a(smsc951x.o)
                0x01f4fcb0                SMSC951xDeviceReceiveFrame
 .text.SMSC951xDeviceWriteReg
                0x01f4fd98       0x68 uspi/lib/libuspi.a(smsc951x.o)
                0x01f4fd98                SMSC951xDeviceWriteReg
 .text.SMSC951xDeviceConfigure
                0x01f4fe00      0x378 uspi/lib/libuspi.a(smsc951x.o)
                0x01f4fe00                SMSC951xDeviceConfigure
 .text.SMSC951xDeviceReadReg
                0x01f50178       0x68 uspi/lib/libuspi.a(smsc951x.o)
                0x01f50178                SMSC951xDeviceReadReg
 .text          0x01f501e0        0x0 uspi/lib/libuspi.a(lan7800.o)
 .text.LAN7800Device
                0x01f501e0       0x38 uspi/lib/libuspi.a(lan7800.o)
                0x01f501e0                LAN7800Device
 .text._LAN7800Device
                0x01f50218       0x6c uspi/lib/libuspi.a(lan7800.o)
                0x01f50218                _LAN7800Device
 .text.LAN7800DeviceGetMACAddress
                0x01f50284        0x8 uspi/lib/libuspi.a(lan7800.o)
                0x01f50284                LAN7800DeviceGetMACAddress
 .text.LAN7800DeviceSendFrame
                0x01f5028c       0x60 uspi/lib/libuspi.a(lan7800.o)
                0x01f5028c                LAN7800DeviceSendFrame
 .text.LAN7800DeviceReceiveFrame
                0x01f502ec       0xdc uspi/lib/libuspi.a(lan7800.o)
                0x01f502ec                LAN7800DeviceReceiveFrame
 .text.LAN7800DeviceIsLinkUp
                0x01f503c8      0x210 uspi/lib/libuspi.a(lan7800.o)
                0x01f503c8                LAN7800DeviceIsLinkUp
 .text.LAN7800DeviceInitMACAddress
                0x01f505d8      0x1ec uspi/lib/libuspi.a(lan7800.o)
                0x01f505d8                LAN7800DeviceInitMACAddress
 .text.LAN7800DeviceInitPHY
                0x01f507c4      0x3d8 uspi/lib/libuspi.a(lan7800.o)
                0x01f507c4                LAN7800DeviceInitPHY
 .text.LAN7800DevicePHYWrite
                0x01f50b9c      0x218 uspi/lib/libuspi.a(lan7800.o)
                0x01f50b9c                LAN7800DevicePHYWrite
 .text.LAN7800DevicePHYRead
                0x01f50db4      0x218 uspi/lib/libuspi.a(lan7800.o)
                0x01f50db4                LAN7800DevicePHYRead
 .text.LAN7800DeviceWaitReg
                0x01f50fcc       0xc0 uspi/lib/libuspi.a(lan7800.o)
                0x01f50fcc                LAN7800DeviceWaitReg
 .text.LAN7800DeviceReadWriteReg
                0x01f5108c      0x100 uspi/lib/libuspi.a(lan7800.o)
                0x01f5108c                LAN7800DeviceReadWriteReg
 .text.LAN7800DeviceWriteReg
                0x01f5118c       0x94 uspi/lib/libuspi.a(lan7800.o)
                0x01f5118c                LAN7800DeviceWriteReg
 .text.LAN7800DeviceConfigure
                0x01f51220      0x4f0 uspi/lib/libuspi.a(lan7800.o)
                0x01f51220                LAN7800DeviceConfigure
 .text.LAN7800DeviceReadReg
                0x01f51710       0x88 uspi/lib/libuspi.a(lan7800.o)
                0x01f51710                LAN7800DeviceReadReg
 .text          0x01f51798        0x0 uspi/lib/libuspi.a(string.o)
 .text.String   0x01f51798       0x10 uspi/lib/libuspi.a(string.o)
                0x01f51798                String
 .text.String2  0x01f517a8       0x34 uspi/lib/libuspi.a(string.o)
                0x01f517a8                String2
 .text._String  0x01f517dc       0x28 uspi/lib/libuspi.a(string.o)
                0x01f517dc                _String
 .text.StringGet
                0x01f51804       0x18 uspi/lib/libuspi.a(string.o)
                0x01f51804                StringGet
 .text.StringSet
                0x01f5181c       0x48 uspi/lib/libuspi.a(string.o)
                0x01f5181c                StringSet
 .text.StringGetLength
                0x01f51864       0x10 uspi/lib/libuspi.a(string.o)
                0x01f51864                StringGetLength
 .text.StringAppend
                0x01f51874       0x7c uspi/lib/libuspi.a(string.o)
                0x01f51874                StringAppend
 .text.StringCompare
                0x01f518f0        0x8 uspi/lib/libuspi.a(string.o)
                0x01f518f0                StringCompare
 .text.StringFind
                0x01f518f8       0x44 uspi/lib/libuspi.a(string.o)
                0x01f518f8                StringFind
 .text.StringFormatV
                0x01f5193c      0xe40 uspi/lib/libuspi.a(string.o)
                0x01f5193c                StringFormatV
 .text.StringFormat
                0x01f5277c       0x30 uspi/lib/libuspi.a(string.o)
                0x01f5277c                StringFormat
 .text.StringPutChar
                0x01f527ac       0x98 uspi/lib/libuspi.a(string.o)
                0x01f527ac                StringPutChar
 .text.StringPutString
                0x01f52844       0x94 uspi/lib/libuspi.a(string.o)
                0x01f52844                StringPutString
 .text.StringReserveSpace
                0x01f528d8       0x68 uspi/lib/libuspi.a(string.o)
                0x01f528d8                StringReserveSpace
 .text.ntoa     0x01f52940       0x84 uspi/lib/libuspi.a(string.o)
                0x01f52940                ntoa
 .text          0x01f529c4        0x0 uspi/lib/libuspi.a(util.o)
 .text.uspi_memset
                0x01f529c4      0x174 uspi/lib/libuspi.a(util.o)
                0x01f529c4                uspi_memset
 .text.uspi_memcpy
                0x01f52b38      0x36c uspi/lib/libuspi.a(util.o)
                0x01f52b38                uspi_memcpy
 .text.uspi_memcmp
                0x01f52ea4       0x5c uspi/lib/libuspi.a(util.o)
                0x01f52ea4                uspi_memcmp
 .text.uspi_strlen
                0x01f52f00       0x28 uspi/lib/libuspi.a(util.o)
                0x01f52f00                uspi_strlen
 .text.uspi_strcmp
                0x01f52f28       0x74 uspi/lib/libuspi.a(util.o)
                0x01f52f28                uspi_strcmp
 .text.uspi_strcpy
                0x01f52f9c       0x2c uspi/lib/libuspi.a(util.o)
                0x01f52f9c                uspi_strcpy
 .text.uspi_strncpy
                0x01f52fc8       0x50 uspi/lib/libuspi.a(util.o)
                0x01f52fc8                uspi_strncpy
 .text.uspi_strcat
                0x01f53018       0x44 uspi/lib/libuspi.a(util.o)
                0x01f53018                uspi_strcat
 .text.uspi_char2int
                0x01f5305c        0x4 uspi/lib/libuspi.a(util.o)
                0x01f5305c                uspi_char2int
 .text.uspi_le2be16
                0x01f53060        0xc uspi/lib/libuspi.a(util.o)
                0x01f53060                uspi_le2be16
 .text.uspi_le2be32
                0x01f5306c        0x8 uspi/lib/libuspi.a(util.o)
                0x01f5306c                uspi_le2be32
 .text          0x01f53074        0x0 uspi/lib/libuspi.a(usbmassdevice.o)
 .text.USBBulkOnlyMassStorageDevice
                0x01f53074       0x38 uspi/lib/libuspi.a(usbmassdevice.o)
                0x01f53074                USBBulkOnlyMassStorageDevice
 .text._USBBulkOnlyMassStorageDevice
                0x01f530ac       0x54 uspi/lib/libuspi.a(usbmassdevice.o)
                0x01f530ac                _USBBulkOnlyMassStorageDevice
 .text.USBBulkOnlyMassStorageDeviceSeek
                0x01f53100       0x10 uspi/lib/libuspi.a(usbmassdevice.o)
                0x01f53100                USBBulkOnlyMassStorageDeviceSeek
 .text.USBBulkOnlyMassStorageDeviceGetCapacity
                0x01f53110        0x8 uspi/lib/libuspi.a(usbmassdevice.o)
                0x01f53110                USBBulkOnlyMassStorageDeviceGetCapacity
 .text.USBBulkOnlyMassStorageDeviceTryRead
                0x01f53118      0x280 uspi/lib/libuspi.a(usbmassdevice.o)
                0x01f53118                USBBulkOnlyMassStorageDeviceTryRead
 .text.USBBulkOnlyMassStorageDeviceTryWrite
                0x01f53398      0x264 uspi/lib/libuspi.a(usbmassdevice.o)
                0x01f53398                USBBulkOnlyMassStorageDeviceTryWrite
 .text.USBBulkOnlyMassStorageDeviceCommand
                0x01f535fc      0x18c uspi/lib/libuspi.a(usbmassdevice.o)
                0x01f535fc                USBBulkOnlyMassStorageDeviceCommand
 .text.USBBulkOnlyMassStorageDeviceConfigure
                0x01f53788      0x45c uspi/lib/libuspi.a(usbmassdevice.o)
                0x01f53788                USBBulkOnlyMassStorageDeviceConfigure
 .text.USBBulkOnlyMassStorageDeviceReset
                0x01f53be4      0x104 uspi/lib/libuspi.a(usbmassdevice.o)
                0x01f53be4                USBBulkOnlyMassStorageDeviceReset
 .text.USBBulkOnlyMassStorageDeviceRead
                0x01f53ce8      0x2a4 uspi/lib/libuspi.a(usbmassdevice.o)
                0x01f53ce8                USBBulkOnlyMassStorageDeviceRead
 .text.USBBulkOnlyMassStorageDeviceWrite
                0x01f53f8c      0x294 uspi/lib/libuspi.a(usbmassdevice.o)
                0x01f53f8c                USBBulkOnlyMassStorageDeviceWrite
 .text          0x01f54220        0x0 uspi/lib/libuspi.a(dwhciframeschednper.o)
 .text._DWHCIFrameSchedulerNonPeriodic
                0x01f54220        0xc uspi/lib/libuspi.a(dwhciframeschednper.o)
                0x01f54220                _DWHCIFrameSchedulerNonPeriodic
 .text.DWHCIFrameSchedulerNonPeriodicStartSplit
                0x01f5422c        0xc uspi/lib/libuspi.a(dwhciframeschednper.o)
                0x01f5422c                DWHCIFrameSchedulerNonPeriodicStartSplit
 .text.DWHCIFrameSchedulerNonPeriodicWaitForFrame
                0x01f54238        0x4 uspi/lib/libuspi.a(dwhciframeschednper.o)
                0x01f54238                DWHCIFrameSchedulerNonPeriodicWaitForFrame
 .text.DWHCIFrameSchedulerNonPeriodicIsOddFrame
                0x01f5423c        0x8 uspi/lib/libuspi.a(dwhciframeschednper.o)
                0x01f5423c                DWHCIFrameSchedulerNonPeriodicIsOddFrame
 .text.DWHCIFrameSchedulerNonPeriodicCompleteSplit
                0x01f54244       0x54 uspi/lib/libuspi.a(dwhciframeschednper.o)
                0x01f54244                DWHCIFrameSchedulerNonPeriodicCompleteSplit
 .text.DWHCIFrameSchedulerNonPeriodicTransactionComplete
                0x01f54298       0xc0 uspi/lib/libuspi.a(dwhciframeschednper.o)
                0x01f54298                DWHCIFrameSchedulerNonPeriodicTransactionComplete
 .text.DWHCIFrameSchedulerNonPeriodic
                0x01f54358       0x54 uspi/lib/libuspi.a(dwhciframeschednper.o)
                0x01f54358                DWHCIFrameSchedulerNonPeriodic
 .text          0x01f543ac        0x0 uspi/lib/libuspi.a(dwhciframeschedper.o)
 .text._DWHCIFrameSchedulerPeriodic
                0x01f543ac        0xc uspi/lib/libuspi.a(dwhciframeschedper.o)
                0x01f543ac                _DWHCIFrameSchedulerPeriodic
 .text.DWHCIFrameSchedulerPeriodicStartSplit
                0x01f543b8       0x14 uspi/lib/libuspi.a(dwhciframeschedper.o)
                0x01f543b8                DWHCIFrameSchedulerPeriodicStartSplit
 .text.DWHCIFrameSchedulerPeriodicIsOddFrame
                0x01f543cc        0xc uspi/lib/libuspi.a(dwhciframeschedper.o)
                0x01f543cc                DWHCIFrameSchedulerPeriodicIsOddFrame
 .text.DWHCIFrameSchedulerPeriodicWaitForFrame
                0x01f543d8       0x70 uspi/lib/libuspi.a(dwhciframeschedper.o)
                0x01f543d8                DWHCIFrameSchedulerPeriodicWaitForFrame
 .text.DWHCIFrameSchedulerPeriodicCompleteSplit
                0x01f54448       0x68 uspi/lib/libuspi.a(dwhciframeschedper.o)
                0x01f54448                DWHCIFrameSchedulerPeriodicCompleteSplit
 .text.DWHCIFrameSchedulerPeriodicTransactionComplete
                0x01f544b0       0xb4 uspi/lib/libuspi.a(dwhciframeschedper.o)
                0x01f544b0                DWHCIFrameSchedulerPeriodicTransactionComplete
 .text.DWHCIFrameSchedulerPeriodic
                0x01f54564       0x5c uspi/lib/libuspi.a(dwhciframeschedper.o)
                0x01f54564                DWHCIFrameSchedulerPeriodic
 .text          0x01f545c0        0x0 uspi/lib/libuspi.a(usbkeyboard.o)
 .text.USBKeyboardDeviceConfigure
                0x01f545c0      0x2bc uspi/lib/libuspi.a(usbkeyboard.o)
                0x01f545c0                USBKeyboardDeviceConfigure
 .text.USBKeyboardDeviceCompletionRoutine
                0x01f5487c      0x208 uspi/lib/libuspi.a(usbkeyboard.o)
 .text.USBKeyboardDevice
                0x01f54a84       0x58 uspi/lib/libuspi.a(usbkeyboard.o)
                0x01f54a84                USBKeyboardDevice
 .text._CUSBKeyboardDevice
                0x01f54adc       0x54 uspi/lib/libuspi.a(usbkeyboard.o)
                0x01f54adc                _CUSBKeyboardDevice
 .text.USBKeyboardDeviceRegisterKeyPressedHandler
                0x01f54b30        0x8 uspi/lib/libuspi.a(usbkeyboard.o)
                0x01f54b30                USBKeyboardDeviceRegisterKeyPressedHandler
 .text.USBKeyboardDeviceRegisterSelectConsoleHandler
                0x01f54b38        0x8 uspi/lib/libuspi.a(usbkeyboard.o)
                0x01f54b38                USBKeyboardDeviceRegisterSelectConsoleHandler
 .text.USBKeyboardDeviceRegisterShutdownHandler
                0x01f54b40        0x8 uspi/lib/libuspi.a(usbkeyboard.o)
                0x01f54b40                USBKeyboardDeviceRegisterShutdownHandler
 .text.USBKeyboardDeviceRegisterKeyStatusHandlerRaw
                0x01f54b48        0x8 uspi/lib/libuspi.a(usbkeyboard.o)
                0x01f54b48                USBKeyboardDeviceRegisterKeyStatusHandlerRaw
 .text          0x01f54b50        0x0 uspi/lib/libuspi.a(dwhcirootport.o)
 .text.DWHCIRootPort
                0x01f54b50        0xc uspi/lib/libuspi.a(dwhcirootport.o)
                0x01f54b50                DWHCIRootPort
 .text._DWHCIRootPort
                0x01f54b5c       0x34 uspi/lib/libuspi.a(dwhcirootport.o)
                0x01f54b5c                _DWHCIRootPort
 .text.DWHCIRootPortInitialize
                0x01f54b90      0x1d0 uspi/lib/libuspi.a(dwhcirootport.o)
                0x01f54b90                DWHCIRootPortInitialize
 .text          0x01f54d60        0x0 uspi/lib/libuspi.a(usbmouse.o)
 .text.USBMouseDeviceConfigure
                0x01f54d60      0x2bc uspi/lib/libuspi.a(usbmouse.o)
                0x01f54d60                USBMouseDeviceConfigure
 .text.USBMouseDeviceCompletionRoutine
                0x01f5501c       0xd4 uspi/lib/libuspi.a(usbmouse.o)
 .text.USBMouseDevice
                0x01f550f0       0x3c uspi/lib/libuspi.a(usbmouse.o)
                0x01f550f0                USBMouseDevice
 .text._CUSBMouseDevice
                0x01f5512c       0x4c uspi/lib/libuspi.a(usbmouse.o)
                0x01f5512c                _CUSBMouseDevice
 .text.USBMouseDeviceRegisterStatusHandler
                0x01f55178        0x8 uspi/lib/libuspi.a(usbmouse.o)
                0x01f55178                USBMouseDeviceRegisterStatusHandler
 .text          0x01f55180        0x0 uspi/lib/libuspi.a(dwhciframeschednsplit.o)
 .text.DWHCIFrameSchedulerNoSplitStartSplit
                0x01f55180        0x4 uspi/lib/libuspi.a(dwhciframeschednsplit.o)
                0x01f55180                DWHCIFrameSchedulerNoSplitStartSplit
 .text.DWHCIFrameSchedulerNoSplitCompleteSplit
                0x01f55184        0x8 uspi/lib/libuspi.a(dwhciframeschednsplit.o)
                0x01f55184                DWHCIFrameSchedulerNoSplitCompleteSplit
 .text.DWHCIFrameSchedulerNoSplitTransactionComplete
                0x01f5518c        0x4 uspi/lib/libuspi.a(dwhciframeschednsplit.o)
                0x01f5518c                DWHCIFrameSchedulerNoSplitTransactionComplete
 .text.DWHCIFrameSchedulerNoSplitIsOddFrame
                0x01f55190        0xc uspi/lib/libuspi.a(dwhciframeschednsplit.o)
                0x01f55190                DWHCIFrameSchedulerNoSplitIsOddFrame
 .text.DWHCIFrameSchedulerNoSplitWaitForFrame
                0x01f5519c       0x64 uspi/lib/libuspi.a(dwhciframeschednsplit.o)
                0x01f5519c                DWHCIFrameSchedulerNoSplitWaitForFrame
 .text._DWHCIFrameSchedulerNoSplit
                0x01f55200        0x4 uspi/lib/libuspi.a(dwhciframeschednsplit.o)
                0x01f55200                _DWHCIFrameSchedulerNoSplit
 .text.DWHCIFrameSchedulerNoSplit
                0x01f55204       0x58 uspi/lib/libuspi.a(dwhciframeschednsplit.o)
                0x01f55204                DWHCIFrameSchedulerNoSplit
 .text          0x01f5525c        0x0 uspi/lib/libuspi.a(usbgamepad.o)
 .text.BitGetUnsigned
                0x01f5525c      0x104 uspi/lib/libuspi.a(usbgamepad.o)
 .text.USBGamePadDeviceDecodeReport
                0x01f55360      0x89c uspi/lib/libuspi.a(usbgamepad.o)
 .text.USBGamePadDeviceConfigure
                0x01f55bfc      0x434 uspi/lib/libuspi.a(usbgamepad.o)
                0x01f55bfc                USBGamePadDeviceConfigure
 .text.USBGamePadDeviceCompletionRoutine
                0x01f56030       0xcc uspi/lib/libuspi.a(usbgamepad.o)
 .text.USBGamePadDevice
                0x01f560fc       0x9c uspi/lib/libuspi.a(usbgamepad.o)
                0x01f560fc                USBGamePadDevice
 .text._CUSBGamePadDevice
                0x01f56198       0x84 uspi/lib/libuspi.a(usbgamepad.o)
                0x01f56198                _CUSBGamePadDevice
 .text.USBGamePadDeviceRegisterStatusHandler
                0x01f5621c        0x8 uspi/lib/libuspi.a(usbgamepad.o)
                0x01f5621c                USBGamePadDeviceRegisterStatusHandler
 .text.USBGamePadDeviceGetReport
                0x01f56224       0x70 uspi/lib/libuspi.a(usbgamepad.o)
                0x01f56224                USBGamePadDeviceGetReport
 .text          0x01f56294        0x0 uspi/lib/libuspi.a(synchronize.o)
 .text.uspi_EnterCritical
                0x01f56294       0x3c uspi/lib/libuspi.a(synchronize.o)
                0x01f56294                uspi_EnterCritical
 .text.uspi_LeaveCritical
                0x01f562d0       0x3c uspi/lib/libuspi.a(synchronize.o)
                0x01f562d0                uspi_LeaveCritical
 .text.uspi_CleanAndInvalidateDataCacheRange
                0x01f5630c       0x30 uspi/lib/libuspi.a(synchronize.o)
                0x01f5630c                uspi_CleanAndInvalidateDataCacheRange
 .text          0x01f5633c        0x0 uspi/lib/libuspi.a(usbstring.o)
 .text.USBString
                0x01f5633c       0x24 uspi/lib/libuspi.a(usbstring.o)
                0x01f5633c                USBString
 .text.USBStringCopy
                0x01f56360       0x6c uspi/lib/libuspi.a(usbstring.o)
                0x01f56360                USBStringCopy
 .text._USBString
                0x01f563cc       0x40 uspi/lib/libuspi.a(usbstring.o)
                0x01f563cc                _USBString
 .text.USBStringGetFromDescriptor
                0x01f5640c      0x474 uspi/lib/libuspi.a(usbstring.o)
                0x01f5640c                USBStringGetFromDescriptor
 .text.USBStringGet
                0x01f56880        0x8 uspi/lib/libuspi.a(usbstring.o)
                0x01f56880                USBStringGet
 .text.USBStringGetLanguageID
                0x01f56888      0x154 uspi/lib/libuspi.a(usbstring.o)
                0x01f56888                USBStringGetLanguageID
 .text          0x01f569dc        0x0 uspi/lib/libuspi.a(usbmidi.o)
 .text.USBMIDIDeviceConfigure
                0x01f569dc      0x218 uspi/lib/libuspi.a(usbmidi.o)
                0x01f569dc                USBMIDIDeviceConfigure
 .text.USBMIDIDeviceCompletionRoutine
                0x01f56bf4       0xfc uspi/lib/libuspi.a(usbmidi.o)
 .text.USBMIDIDevice
                0x01f56cf0       0x30 uspi/lib/libuspi.a(usbmidi.o)
                0x01f56cf0                USBMIDIDevice
 .text._CUSBMIDIDevice
                0x01f56d20       0x4c uspi/lib/libuspi.a(usbmidi.o)
                0x01f56d20                _CUSBMIDIDevice
 .text.USBMIDIDeviceRegisterPacketHandler
                0x01f56d6c        0x8 uspi/lib/libuspi.a(usbmidi.o)
                0x01f56d6c                USBMIDIDeviceRegisterPacketHandler
 .text          0x01f56d74        0x0 uspi/lib/libuspi.a(usbconfigparser.o)
 .text.USBConfigurationParser
                0x01f56d74      0x110 uspi/lib/libuspi.a(usbconfigparser.o)
                0x01f56d74                USBConfigurationParser
 .text._USBConfigurationParser
                0x01f56e84        0xc uspi/lib/libuspi.a(usbconfigparser.o)
                0x01f56e84                _USBConfigurationParser
 .text.USBConfigurationParserIsValid
                0x01f56e90        0x8 uspi/lib/libuspi.a(usbconfigparser.o)
                0x01f56e90                USBConfigurationParserIsValid
 .text.USBConfigurationParserGetDescriptor
                0x01f56e98       0xa4 uspi/lib/libuspi.a(usbconfigparser.o)
                0x01f56e98                USBConfigurationParserGetDescriptor
 .text.USBConfigurationParserError
                0x01f56f3c       0x2c uspi/lib/libuspi.a(usbconfigparser.o)
                0x01f56f3c                USBConfigurationParserError
 .text          0x01f56f68        0x0 uspi/lib/libuspi.a(usbdevicefactory.o)
 .text.GetDevice
                0x01f56f68      0x1d0 uspi/lib/libuspi.a(usbdevicefactory.o)
                0x01f56f68                GetDevice
 .text.USBDeviceFactoryGetDevice
                0x01f57138      0x224 uspi/lib/libuspi.a(usbdevicefactory.o)
                0x01f57138                USBDeviceFactoryGetDevice
 .text          0x01f5735c        0x0 uspi/lib/libuspi.a(usbstandardhub.o)
 .text.USBStandardHub
                0x01f5735c       0x68 uspi/lib/libuspi.a(usbstandardhub.o)
                0x01f5735c                USBStandardHub
 .text._USBStandardHub
                0x01f573c4       0x8c uspi/lib/libuspi.a(usbstandardhub.o)
                0x01f573c4                _USBStandardHub
 .text.USBStandardHubInitialize
                0x01f57450        0x4 uspi/lib/libuspi.a(usbstandardhub.o)
                0x01f57450                USBStandardHubInitialize
 .text.USBStandardHubGetDeviceNames
                0x01f57454       0xc0 uspi/lib/libuspi.a(usbstandardhub.o)
                0x01f57454                USBStandardHubGetDeviceNames
 .text.USBStandardHubEnumeratePorts
                0x01f57514      0x584 uspi/lib/libuspi.a(usbstandardhub.o)
                0x01f57514                USBStandardHubEnumeratePorts
 .text.USBStandardHubConfigure
                0x01f57a98      0x2bc uspi/lib/libuspi.a(usbstandardhub.o)
                0x01f57a98                USBStandardHubConfigure
 .text          0x01f57d54        0x0 uspi/lib/libuspi.a(keymap.o)
 .text.KeyMap   0x01f57d54       0x24 uspi/lib/libuspi.a(keymap.o)
                0x01f57d54                KeyMap
 .text._KeyMap  0x01f57d78        0x4 uspi/lib/libuspi.a(keymap.o)
                0x01f57d78                _KeyMap
 .text.KeyMapClearTable
                0x01f57d7c       0x34 uspi/lib/libuspi.a(keymap.o)
                0x01f57d7c                KeyMapClearTable
 .text.KeyMapSetEntry
                0x01f57db0       0x50 uspi/lib/libuspi.a(keymap.o)
                0x01f57db0                KeyMapSetEntry
 .text.KeyMapTranslate
                0x01f57e00      0x118 uspi/lib/libuspi.a(keymap.o)
                0x01f57e00                KeyMapTranslate
 .text.KeyMapGetString
                0x01f57f18       0xbc uspi/lib/libuspi.a(keymap.o)
                0x01f57f18                KeyMapGetString
 .text.KeyMapGetLEDStatus
                0x01f57fd4       0x34 uspi/lib/libuspi.a(keymap.o)
                0x01f57fd4                KeyMapGetLEDStatus
 *(.gnu.warning)
 *(.glue_7t)
 .glue_7t       0x01f58008        0x0 linker stubs
 *(.glue_7)
 .glue_7        0x01f58008        0x0 linker stubs
 *(.vfp11_veneer)
 .vfp11_veneer  0x01f58008        0x0 linker stubs
 *(.v4_bx)
 .v4_bx         0x01f58008        0x0 linker stubs

.fini
 *(.fini)
                [!provide]                PROVIDE (__etext, .)
                [!provide]                PROVIDE (_etext, .)
                [!provide]                PROVIDE (etext, .)

.rodata         0x01f58008     0xc154
 *(.rodata .rodata.* .gnu.linkonce.r.*)
 .rodata.str1.4
                0x01f58008      0x114 exception.o
                                0x118 (size before relaxing)
 .rodata.str1.4
                0x01f5811c      0x26e main.o
                                0x276 (size before relaxing)
 *fill*         0x01f5838a        0x6 
 .rodata._ZL16snoopBackCommand
                0x01f58390        0x4 main.o
 *fill*         0x01f58394        0x4 
 .rodata._ZL10Sample_bin
                0x01f58398     0x337a main.o
 *fill*         0x01f5b712        0x6 
 .rodata._ZL11I__logo_png
                0x01f5b718     0x3876 main.o
 *fill*         0x01f5ef8e        0x2 
 .rodata._ZL6LfnOfs
                0x01f5ef90        0xd ff.o
 *fill*         0x01f5ef9d        0x3 
 .rodata._ZL5ExCvt
                0x01f5efa0       0x80 ff.o
 .rodata.str1.4
                0x01f5f020       0x1f ff.o
 *fill*         0x01f5f03f        0x1 
 .rodata._ZTV8Keyboard
                0x01f5f040       0x10 keyboard.o
                0x01f5f040                vtable for Keyboard
 .rodata._ZN9DiskImage15SectorsPerTrackE
                0x01f5f050       0x2a DiskImage.o
                0x01f5f050                DiskImage::SectorsPerTrack
 *fill*         0x01f5f07a        0x2 
 .rodata.str1.4
                0x01f5f07c      0x22c DiskImage.o
 .rodata._ZL19DirectoryBlocksFree
                0x01f5f2a8       0x20 iec_commands.o
 .rodata.str1.4
                0x01f5f2c8      0x116 iec_commands.o
                                0x11e (size before relaxing)
 *fill*         0x01f5f3de        0x2 
 .rodata._ZL9filetypes
                0x01f5f3e0       0x15 iec_commands.o
 *fill*         0x01f5f3f5        0x3 
 .rodata._ZL15GCR_decode_high
                0x01f5f3f8       0x20 gcr.o
 .rodata._ZL13GCR_conv_data
                0x01f5f418       0x10 gcr.o
 .rodata.str1.4
                0x01f5f428      0x100 gcr.o
 .rodata._ZL14GCR_decode_low
                0x01f5f528       0x20 gcr.o
 .rodata.str1.4
                0x01f5f548      0x589 emmc.o
 *fill*         0x01f5fad1        0x7 
 .rodata._ZN11CEMMCDevice11sd_commandsE
                0x01f5fad8      0x100 emmc.o
                0x01f5fad8                CEMMCDevice::sd_commands
 .rodata._ZN11CEMMCDevice12sd_acommandsE
                0x01f5fbd8      0x100 emmc.o
                0x01f5fbd8                CEMMCDevice::sd_acommands
 .rodata.str1.4
                0x01f5fcd8       0xf9 options.o
 *fill*         0x01f5fdd1        0x3 
 .rodata        0x01f5fdd4       0x70 Screen.o
 *fill*         0x01f5fe44        0x4 
 .rodata._ZL23stbi__depth_scale_table
                0x01f5fe48        0x9 Screen.o
 *fill*         0x01f5fe51        0x7 
 .rodata._ZL7CMBFont
                0x01f5fe58     0x1000 Screen.o
 .rodata._ZL17stbi__zdist_extra
                0x01f60e58       0x80 Screen.o
 .rodata._ZL23stbi__zdefault_distance
                0x01f60ed8       0x20 Screen.o
 .rodata._ZZL27stbi__compute_huffman_codesP10stbi__zbufE15length_dezigzag
                0x01f60ef8       0x13 Screen.o
 *fill*         0x01f60f0b        0x1 
 .rodata.str1.4
                0x01f60f0c      0x297 Screen.o
                                0x29b (size before relaxing)
 *fill*         0x01f611a3        0x5 
 .rodata._ZL18stbi__zlength_base
                0x01f611a8       0x7c Screen.o
 *fill*         0x01f61224        0x4 
 .rodata._ZL21stbi__zdefault_length
                0x01f61228      0x120 Screen.o
 .rodata._ZL16first_row_filter
                0x01f61348        0x5 Screen.o
 *fill*         0x01f6134d        0x3 
 .rodata._ZL19stbi__zlength_extra
                0x01f61350       0x7c Screen.o
 *fill*         0x01f613cc        0x4 
 .rodata._ZL16stbi__zdist_base
                0x01f613d0       0x80 Screen.o
 .rodata.str1.4
                0x01f61450       0x29 Timer.o
 *fill*         0x01f61479        0x7 
 .rodata._ZN11FileBrowser8SwapKeysE
                0x01f61480       0x78 FileBrowser.o
                0x01f61480                FileBrowser::SwapKeys
 .rodata._ZZN11FileBrowser15DisplayDiskInfoEP9DiskImagePKcE9fileTypes
                0x01f614f8       0x20 FileBrowser.o
 .rodata.str1.4
                0x01f61518       0xd4 FileBrowser.o
                                 0xe8 (size before relaxing)
 *fill*         0x01f615ec        0x4 
 .rodata._ZL7palette
                0x01f615f0       0x40 FileBrowser.o
 .rodata.str1.4
                0x01f61630       0x60 DiskCaddy.o
 .rodata.str1.4
                0x01f61690       0x36 ROMs.o
 *fill*         0x01f616c6        0x2 
 .rodata._ZTV13InputMappings
                0x01f616c8       0x10 InputMappings.o
                0x01f616c8                vtable for InputMappings
 .rodata.avpriv_cga_font
                0x01f616d8      0x800 xga_font_data.o
                0x01f616d8                avpriv_cga_font
 .rodata.avpriv_vga16_font
                0x01f61ed8     0x1000 xga_font_data.o
                0x01f61ed8                avpriv_vga16_font
 .rodata.blanks.7057
                0x01f62ed8       0x10 C:/Program Files (x86)/GNU Tools ARM Embedded/5.4 2016q2/arm-none-eabi/lib/fpu/libc.a(lib_a-svfprintf.o)
 .rodata.str1.4
                0x01f62ee8       0x3f C:/Program Files (x86)/GNU Tools ARM Embedded/5.4 2016q2/arm-none-eabi/lib/fpu/libc.a(lib_a-svfprintf.o)
                                 0x42 (size before relaxing)
 *fill*         0x01f62f27        0x1 
 .rodata.zeroes.7058
                0x01f62f28       0x10 C:/Program Files (x86)/GNU Tools ARM Embedded/5.4 2016q2/arm-none-eabi/lib/fpu/libc.a(lib_a-svfprintf.o)
 .rodata.blanks.7072
                0x01f62f38       0x10 C:/Program Files (x86)/GNU Tools ARM Embedded/5.4 2016q2/arm-none-eabi/lib/fpu/libc.a(lib_a-vfprintf.o)
 .rodata.str1.4
                0x01f62f48       0x42 C:/Program Files (x86)/GNU Tools ARM Embedded/5.4 2016q2/arm-none-eabi/lib/fpu/libc.a(lib_a-vfprintf.o)
 .rodata.zeroes.7073
                0x01f62f48       0x10 C:/Program Files (x86)/GNU Tools ARM Embedded/5.4 2016q2/arm-none-eabi/lib/fpu/libc.a(lib_a-vfprintf.o)
 .rodata._ctype_
                0x01f62f58      0x101 C:/Program Files (x86)/GNU Tools ARM Embedded/5.4 2016q2/arm-none-eabi/lib/fpu/libc.a(lib_a-ctype_.o)
                0x01f62f58                _ctype_
 *fill*         0x01f63059        0x3 
 .rodata.str1.4
                0x01f6305c       0x10 C:/Program Files (x86)/GNU Tools ARM Embedded/5.4 2016q2/arm-none-eabi/lib/fpu/libc.a(lib_a-dtoa.o)
                                 0x12 (size before relaxing)
 .rodata.str1.4
                0x01f6306c        0x2 C:/Program Files (x86)/GNU Tools ARM Embedded/5.4 2016q2/arm-none-eabi/lib/fpu/libc.a(lib_a-impure.o)
 *fill*         0x01f6306e        0x2 
 .rodata._global_impure_ptr
                0x01f63070        0x4 C:/Program Files (x86)/GNU Tools ARM Embedded/5.4 2016q2/arm-none-eabi/lib/fpu/libc.a(lib_a-impure.o)
                0x01f63070                _global_impure_ptr
 .rodata.str1.4
                0x01f63074        0x6 C:/Program Files (x86)/GNU Tools ARM Embedded/5.4 2016q2/arm-none-eabi/lib/fpu/libc.a(lib_a-locale.o)
                                 0x12 (size before relaxing)
 *fill*         0x01f6307a        0x2 
 .rodata.p05.5398
                0x01f6307c        0xc C:/Program Files (x86)/GNU Tools ARM Embedded/5.4 2016q2/arm-none-eabi/lib/fpu/libc.a(lib_a-mprec.o)
 .rodata.__mprec_tens
                0x01f63088       0xc8 C:/Program Files (x86)/GNU Tools ARM Embedded/5.4 2016q2/arm-none-eabi/lib/fpu/libc.a(lib_a-mprec.o)
                0x01f63088                __mprec_tens
 .rodata.__mprec_bigtens
                0x01f63150       0x28 C:/Program Files (x86)/GNU Tools ARM Embedded/5.4 2016q2/arm-none-eabi/lib/fpu/libc.a(lib_a-mprec.o)
                0x01f63150                __mprec_bigtens
 .rodata.__mprec_tinytens
                0x01f63178       0x28 C:/Program Files (x86)/GNU Tools ARM Embedded/5.4 2016q2/arm-none-eabi/lib/fpu/libc.a(lib_a-mprec.o)
                0x01f63178                __mprec_tinytens
 .rodata.blanks.7001
                0x01f631a0       0x10 C:/Program Files (x86)/GNU Tools ARM Embedded/5.4 2016q2/arm-none-eabi/lib/fpu/libc.a(lib_a-svfiprintf.o)
 .rodata.str1.4
                0x01f631b0       0x2f C:/Program Files (x86)/GNU Tools ARM Embedded/5.4 2016q2/arm-none-eabi/lib/fpu/libc.a(lib_a-svfiprintf.o)
 .rodata.zeroes.7002
                0x01f631b0       0x10 C:/Program Files (x86)/GNU Tools ARM Embedded/5.4 2016q2/arm-none-eabi/lib/fpu/libc.a(lib_a-svfiprintf.o)
 .rodata.blanks.7015
                0x01f631c0       0x10 C:/Program Files (x86)/GNU Tools ARM Embedded/5.4 2016q2/arm-none-eabi/lib/fpu/libc.a(lib_a-vfiprintf.o)
 .rodata.str1.4
                0x01f631d0       0x2f C:/Program Files (x86)/GNU Tools ARM Embedded/5.4 2016q2/arm-none-eabi/lib/fpu/libc.a(lib_a-vfiprintf.o)
 .rodata.zeroes.7016
                0x01f631d0       0x10 C:/Program Files (x86)/GNU Tools ARM Embedded/5.4 2016q2/arm-none-eabi/lib/fpu/libc.a(lib_a-vfiprintf.o)
 .rodata.FromUSPi
                0x01f631e0        0x5 uspi/lib/libuspi.a(uspilibrary.o)
 *fill*         0x01f631e5        0x3 
 .rodata.str1.4
                0x01f631e8       0x8e uspi/lib/libuspi.a(uspilibrary.o)
 *fill*         0x01f63276        0x2 
 .rodata.FromDWHCI
                0x01f63278        0x6 uspi/lib/libuspi.a(dwhcidevice.o)
 *fill*         0x01f6327e        0x2 
 .rodata.str1.4
                0x01f63280       0xc9 uspi/lib/libuspi.a(dwhcidevice.o)
 *fill*         0x01f63349        0x7 
 .rodata.CSWTCH.34
                0x01f63350        0x3 uspi/lib/libuspi.a(dwhcidevice.o)
 *fill*         0x01f63353        0x5 
 .rodata.FromDevice
                0x01f63358        0x7 uspi/lib/libuspi.a(usbdevice.o)
 *fill*         0x01f6335f        0x1 
 .rodata.str1.4
                0x01f63360      0x148 uspi/lib/libuspi.a(usbdevice.o)
                                0x150 (size before relaxing)
 .rodata.str1.4
                0x01f634a8       0x1e uspi/lib/libuspi.a(macaddress.o)
 *fill*         0x01f634c6        0x2 
 .rodata.str1.4
                0x01f634c8       0x92 uspi/lib/libuspi.a(smsc951x.o)
 *fill*         0x01f6355a        0x6 
 .rodata.FromSMSC951x
                0x01f63560        0x9 uspi/lib/libuspi.a(smsc951x.o)
 *fill*         0x01f63569        0x3 
 .rodata.str1.4
                0x01f6356c       0x9c uspi/lib/libuspi.a(lan7800.o)
                                 0xea (size before relaxing)
 .rodata.FromLAN7800
                0x01f63608        0x8 uspi/lib/libuspi.a(lan7800.o)
 .rodata.str1.4
                0x01f63610        0x1 uspi/lib/libuspi.a(string.o)
 .rodata.FromUmsd
                0x01f63610        0x5 uspi/lib/libuspi.a(usbmassdevice.o)
 *fill*         0x01f63615        0x3 
 .rodata.str1.4
                0x01f63618      0x1c4 uspi/lib/libuspi.a(usbmassdevice.o)
                                0x1e8 (size before relaxing)
 .rodata.str1.4
                0x01f637dc       0x1c uspi/lib/libuspi.a(dwhciframeschednper.o)
 .rodata.str1.4
                0x01f637f8       0x1c uspi/lib/libuspi.a(dwhciframeschedper.o)
 .rodata.str1.4
                0x01f637f8       0x3b uspi/lib/libuspi.a(usbkeyboard.o)
                                 0x57 (size before relaxing)
 *fill*         0x01f63833        0x5 
 .rodata.FromUSBKbd
                0x01f63838        0x7 uspi/lib/libuspi.a(usbkeyboard.o)
 *fill*         0x01f6383f        0x1 
 .rodata.FromDWHCIRoot
                0x01f63840        0x7 uspi/lib/libuspi.a(dwhcirootport.o)
 *fill*         0x01f63847        0x1 
 .rodata.str1.4
                0x01f63848       0x87 uspi/lib/libuspi.a(dwhcirootport.o)
 *fill*         0x01f638cf        0x1 
 .rodata.str1.4
                0x01f638d0        0x9 uspi/lib/libuspi.a(usbmouse.o)
                                 0x59 (size before relaxing)
 *fill*         0x01f638d9        0x7 
 .rodata.FromUSBKbd
                0x01f638e0        0x7 uspi/lib/libuspi.a(usbmouse.o)
 *fill*         0x01f638e7        0x1 
 .rodata.leds.5736
                0x01f638e8        0x5 uspi/lib/libuspi.a(usbgamepad.o)
 *fill*         0x01f638ed        0x3 
 .rodata.FromUSBPad
                0x01f638f0        0x7 uspi/lib/libuspi.a(usbgamepad.o)
 *fill*         0x01f638f7        0x1 
 .rodata.str1.4
                0x01f638f8       0x21 uspi/lib/libuspi.a(usbgamepad.o)
                                 0x5f (size before relaxing)
 *fill*         0x01f63919        0x3 
 .rodata.str1.4
                0x01f6391c        0x8 uspi/lib/libuspi.a(usbmidi.o)
                                 0x24 (size before relaxing)
 *fill*         0x01f63924        0x4 
 .rodata.cin_to_length
                0x01f63928       0x40 uspi/lib/libuspi.a(usbmidi.o)
 .rodata.FromMIDI
                0x01f63968        0x6 uspi/lib/libuspi.a(usbmidi.o)
 *fill*         0x01f6396e        0x2 
 .rodata.str1.4
                0x01f63970       0x2f uspi/lib/libuspi.a(usbconfigparser.o)
 *fill*         0x01f6399f        0x1 
 .rodata.str1.4
                0x01f639a0       0x77 uspi/lib/libuspi.a(usbdevicefactory.o)
 *fill*         0x01f63a17        0x1 
 .rodata.FromHub
                0x01f63a18        0x7 uspi/lib/libuspi.a(usbstandardhub.o)
 *fill*         0x01f63a1f        0x1 
 .rodata.str1.4
                0x01f63a20      0x1a8 uspi/lib/libuspi.a(usbstandardhub.o)
                                0x1e4 (size before relaxing)
 .rodata.s_DefaultMap
                0x01f63bc8      0x400 uspi/lib/libuspi.a(keymap.o)
 .rodata.str1.4
                0x01f63fc8       0xc4 uspi/lib/libuspi.a(keymap.o)
                                 0xde (size before relaxing)
 *fill*         0x01f6408c        0x4 
 .rodata.s_KeyStrings
                0x01f64090       0xcc uspi/lib/libuspi.a(keymap.o)

.rodata1
 *(.rodata1)

.ARM.extab      0x01f6415c        0x0
 *(.ARM.extab* .gnu.linkonce.armextab.*)
 .ARM.extab     0x01f6415c        0x0 C:/Program Files (x86)/GNU Tools ARM Embedded/5.4 2016q2/lib/gcc/arm-none-eabi/5.4.1/fpu/libgcc.a(_udivmoddi4.o)
                [!provide]                PROVIDE (__exidx_start, .)

.ARM.exidx      0x01f6415c        0x8
 *(.ARM.exidx* .gnu.linkonce.armexidx.*)
 .ARM.exidx     0x01f6415c        0x8 C:/Program Files (x86)/GNU Tools ARM Embedded/5.4 2016q2/lib/gcc/arm-none-eabi/5.4.1/fpu/libgcc.a(_udivmoddi4.o)
                [!provide]                PROVIDE (__exidx_end, .)

.eh_frame_hdr
 *(.eh_frame_hdr)

.eh_frame
 *(.eh_frame)

.gcc_except_table
 *(.gcc_except_table .gcc_except_table.*)

.exception_ranges
 *(.exception_ranges .exception_ranges*)

.eh_frame
 *(.eh_frame)

.gcc_except_table
 *(.gcc_except_table .gcc_except_table.*)

.exception_ranges
 *(.exception_ranges .exception_ranges*)

.tdata
 *(.tdata .tdata.* .gnu.linkonce.td.*)

.tbss
 *(.tbss .tbss.* .gnu.linkonce.tb.*)
 *(.tcommon)

.preinit_array  0x01f64164        0x0
                0x01f64164                PROVIDE (__preinit_array_start, .)
 *(.preinit_array)
                0x01f64164                PROVIDE (__preinit_array_end, .)

.init_array     0x01f64164        0x4
                0x01f64164                PROVIDE (__init_array_start, .)
 *(SORT(.init_array.*))
 *(.init_array)
 .init_array    0x01f64164        0x4 main.o
                0x01f64168                PROVIDE (__init_array_end, .)

.fini_array     0x01f64168        0x0
                [!provide]                PROVIDE (__fini_array_start, .)
 *(SORT(.fini_array.*))
 *(.fini_array)
                [!provide]                PROVIDE (__fini_array_end, .)

.ctors
 *crtbegin.o(.ctors)
 *crtbegin?.o(.ctors)
 *(EXCLUDE_FILE(*crtend?.o *crtend.o) .ctors)
 *(SORT(.ctors.*))
 *(.ctors)

.dtors
 *crtbegin.o(.dtors)
 *crtbegin?.o(.dtors)
 *(EXCLUDE_FILE(*crtend?.o *crtend.o) .dtors)
 *(SORT(.dtors.*))
 *(.dtors)

.jcr
 *(.jcr)

.data.rel.ro
 *(.data.rel.ro.local* .gnu.linkonce.d.rel.ro.local.*)
 *(.data.rel.ro* .gnu.linkonce.d.rel.ro.*)

.dynamic
 *(.dynamic)

.got            0x01f64168        0x0
 *(.got.plt)
 *(.igot.plt)
 .igot.plt      0x01f64168        0x0 armc-start.o
 *(.got)
 *(.igot)

.data           0x01f64180     0x1b5c
                0x01f64180                __data_start = .
 *(.data .data.* .gnu.linkonce.d.*)
 .data          0x01f64180        0x0 armc-start.o
 .data          0x01f64180        0x0 armc-cstartup.o
 .data          0x01f64180        0x0 armc-cstubs.o
 .data.environ  0x01f64180        0x4 armc-cstubs.o
                0x01f64180                environ
 .data          0x01f64184        0x0 armc-cppstubs.o
 .data          0x01f64184        0x0 exception.o
 .data          0x01f64184        0x0 main.o
 .data.termainalTextNormal
                0x01f64184        0x4 main.o
                0x01f64184                termainalTextNormal
 .data.termainalTextRed
                0x01f64188        0x4 main.o
                0x01f64188                termainalTextRed
 *fill*         0x01f6418c       0x14 
 .data.dmaSoundCB
                0x01f641a0       0x20 main.o
                0x01f641a0                dmaSoundCB
 .data.versionMinor
                0x01f641c0        0x4 main.o
                0x01f641c0                versionMinor
 .data.deviceID
                0x01f641c4        0x1 main.o
                0x01f641c4                deviceID
 *fill*         0x01f641c5        0x3 
 .data.versionMajor
                0x01f641c8        0x4 main.o
                0x01f641c8                versionMajor
 .data          0x01f641cc        0x0 rpi-aux.o
 .data          0x01f641cc        0x0 rpi-mailbox-interface.o
 .data          0x01f641cc        0x0 rpi-mailbox.o
 .data          0x01f641cc        0x0 rpi-gpio.o
 .data.RPI_GpioBase
                0x01f641cc        0x4 rpi-gpio.o
                0x01f641cc                RPI_GpioBase
 .data          0x01f641d0        0x0 rpi-interrupts.o
 .data          0x01f641d0        0x0 cache.o
 .data          0x01f641d0        0x0 ff.o
 .data          0x01f641d0        0x0 interrupt.o
 .data          0x01f641d0        0x0 keyboard.o
 .data          0x01f641d0        0x0 Pi1541.o
 .data          0x01f641d0        0x0 DiskImage.o
 .data.gap_match_length
                0x01f641d0        0x4 DiskImage.o
                0x01f641d0                gap_match_length
 .data          0x01f641d4        0x0 iec_bus.o
 .data._ZN7IEC_Bus18PIGPIO_MASK_IN_ATNE
                0x01f641d4        0x4 iec_bus.o
                0x01f641d4                IEC_Bus::PIGPIO_MASK_IN_ATN
 .data._ZN7IEC_Bus19PIGPIO_MASK_IN_DATAE
                0x01f641d8        0x4 iec_bus.o
                0x01f641d8                IEC_Bus::PIGPIO_MASK_IN_DATA
 .data._ZN7IEC_Bus20PIGPIO_MASK_IN_CLOCKE
                0x01f641dc        0x4 iec_bus.o
                0x01f641dc                IEC_Bus::PIGPIO_MASK_IN_CLOCK
 .data._ZN7IEC_Bus20PIGPIO_MASK_IN_RESETE
                0x01f641e0        0x4 iec_bus.o
                0x01f641e0                IEC_Bus::PIGPIO_MASK_IN_RESET
 .data._ZN7IEC_Bus18PIGPIO_MASK_IN_SRQE
                0x01f641e4        0x4 iec_bus.o
                0x01f641e4                IEC_Bus::PIGPIO_MASK_IN_SRQ
 .data          0x01f641e8        0x0 iec_commands.o
 .data._ZL15DirectoryHeader
                0x01f641e8       0x20 iec_commands.o
 .data._ZL14blankD64DIRBAM
                0x01f64208      0x100 iec_commands.o
 .data          0x01f64308        0x0 m6502.o
 .data._ZN5M650215opcodeFunctionsE
                0x01f64308      0x800 m6502.o
                0x01f64308                M6502::opcodeFunctions
 .data._ZN5M650222T1AddressModeFunctionsE
                0x01f64b08      0x800 m6502.o
                0x01f64b08                M6502::T1AddressModeFunctions
 .data          0x01f65308        0x0 m6522.o
 .data          0x01f65308        0x0 drive.o
 .data          0x01f65308        0x0 gcr.o
 .data.capacity_min
                0x01f65308       0x10 gcr.o
                0x01f65308                capacity_min
 .data.capacity_max
                0x01f65318       0x10 gcr.o
                0x01f65318                capacity_max
 .data.capacity
                0x01f65328       0x10 gcr.o
                0x01f65328                capacity
 .data.sector_map_1541
                0x01f65338       0x2b gcr.o
                0x01f65338                sector_map_1541
 *fill*         0x01f65363        0x5 
 .data.speed_map_1541
                0x01f65368       0x2a gcr.o
                0x01f65368                speed_map_1541
 .data          0x01f65392        0x0 prot.o
 .data          0x01f65392        0x0 lz.o
 .data          0x01f65392        0x0 emmc.o
 *fill*         0x01f65392        0x6 
 .data._ZN11CEMMCDevice11sd_versionsE
                0x01f65398       0x18 emmc.o
                0x01f65398                CEMMCDevice::sd_versions
 .data          0x01f653b0        0x0 diskio.o
 .data          0x01f653b0        0x0 options.o
 .data          0x01f653b0        0x0 Screen.o
 .data._ZZL20stbi__parse_png_fileP9stbi__pngiiE13invalid_chunk
                0x01f653b0       0x19 Screen.o
 .data          0x01f653c9        0x0 Timer.o
 .data          0x01f653c9        0x0 FileBrowser.o
 .data          0x01f653c9        0x0 DiskCaddy.o
 .data          0x01f653c9        0x0 ROMs.o
 .data          0x01f653c9        0x0 InputMappings.o
 .data          0x01f653c9        0x0 xga_font_data.o
 .data          0x01f653c9        0x0 C:/Program Files (x86)/GNU Tools ARM Embedded/5.4 2016q2/arm-none-eabi/lib/fpu/libc.a(lib_a-abs.o)
 .data          0x01f653c9        0x0 C:/Program Files (x86)/GNU Tools ARM Embedded/5.4 2016q2/arm-none-eabi/lib/fpu/libc.a(lib_a-aeabi_atexit.o)
 .data          0x01f653c9        0x0 C:/Program Files (x86)/GNU Tools ARM Embedded/5.4 2016q2/arm-none-eabi/lib/fpu/libc.a(lib_a-cxa_atexit.o)
 .data          0x01f653c9        0x0 C:/Program Files (x86)/GNU Tools ARM Embedded/5.4 2016q2/arm-none-eabi/lib/fpu/libc.a(lib_a-init.o)
 .data          0x01f653c9        0x0 C:/Program Files (x86)/GNU Tools ARM Embedded/5.4 2016q2/arm-none-eabi/lib/fpu/libc.a(lib_a-isdigit.o)
 .data          0x01f653c9        0x0 C:/Program Files (x86)/GNU Tools ARM Embedded/5.4 2016q2/arm-none-eabi/lib/fpu/libc.a(lib_a-isspace.o)
 .data          0x01f653c9        0x0 C:/Program Files (x86)/GNU Tools ARM Embedded/5.4 2016q2/arm-none-eabi/lib/fpu/libc.a(lib_a-malloc.o)
 .data          0x01f653c9        0x0 C:/Program Files (x86)/GNU Tools ARM Embedded/5.4 2016q2/arm-none-eabi/lib/fpu/libc.a(lib_a-mallocr.o)
 *fill*         0x01f653c9        0x3 
 .data.__malloc_av_
                0x01f653cc      0x408 C:/Program Files (x86)/GNU Tools ARM Embedded/5.4 2016q2/arm-none-eabi/lib/fpu/libc.a(lib_a-mallocr.o)
                0x01f653cc                __malloc_av_
 .data.__malloc_trim_threshold
                0x01f657d4        0x4 C:/Program Files (x86)/GNU Tools ARM Embedded/5.4 2016q2/arm-none-eabi/lib/fpu/libc.a(lib_a-mallocr.o)
                0x01f657d4                __malloc_trim_threshold
 .data.__malloc_sbrk_base
                0x01f657d8        0x4 C:/Program Files (x86)/GNU Tools ARM Embedded/5.4 2016q2/arm-none-eabi/lib/fpu/libc.a(lib_a-mallocr.o)
                0x01f657d8                __malloc_sbrk_base
 .data          0x01f657dc        0x0 C:/Program Files (x86)/GNU Tools ARM Embedded/5.4 2016q2/arm-none-eabi/lib/fpu/libc.a(lib_a-memcmp.o)
 .data          0x01f657dc        0x0 C:/Program Files (x86)/GNU Tools ARM Embedded/5.4 2016q2/arm-none-eabi/lib/fpu/libc.a(lib_a-memcpy-stub.o)
 .data          0x01f657dc        0x0 C:/Program Files (x86)/GNU Tools ARM Embedded/5.4 2016q2/arm-none-eabi/lib/fpu/libc.a(lib_a-memmove.o)
 .data          0x01f657dc        0x0 C:/Program Files (x86)/GNU Tools ARM Embedded/5.4 2016q2/arm-none-eabi/lib/fpu/libc.a(lib_a-memset.o)
 .data          0x01f657dc        0x0 C:/Program Files (x86)/GNU Tools ARM Embedded/5.4 2016q2/arm-none-eabi/lib/fpu/libc.a(lib_a-mlock.o)
 .data          0x01f657dc        0x0 C:/Program Files (x86)/GNU Tools ARM Embedded/5.4 2016q2/arm-none-eabi/lib/fpu/libc.a(lib_a-printf.o)
 .data          0x01f657dc        0x0 C:/Program Files (x86)/GNU Tools ARM Embedded/5.4 2016q2/arm-none-eabi/lib/fpu/libc.a(lib_a-rand.o)
 .data          0x01f657dc        0x0 C:/Program Files (x86)/GNU Tools ARM Embedded/5.4 2016q2/arm-none-eabi/lib/fpu/libc.a(lib_a-realloc.o)
 .data          0x01f657dc        0x0 C:/Program Files (x86)/GNU Tools ARM Embedded/5.4 2016q2/arm-none-eabi/lib/fpu/libc.a(lib_a-reallocr.o)
 .data          0x01f657dc        0x0 C:/Program Files (x86)/GNU Tools ARM Embedded/5.4 2016q2/arm-none-eabi/lib/fpu/libc.a(lib_a-reent.o)
 .data          0x01f657dc        0x0 C:/Program Files (x86)/GNU Tools ARM Embedded/5.4 2016q2/arm-none-eabi/lib/fpu/libc.a(lib_a-sbrkr.o)
 .data          0x01f657dc        0x0 C:/Program Files (x86)/GNU Tools ARM Embedded/5.4 2016q2/arm-none-eabi/lib/fpu/libc.a(lib_a-snprintf.o)
 .data          0x01f657dc        0x0 C:/Program Files (x86)/GNU Tools ARM Embedded/5.4 2016q2/arm-none-eabi/lib/fpu/libc.a(lib_a-sprintf.o)
 .data          0x01f657dc        0x0 C:/Program Files (x86)/GNU Tools ARM Embedded/5.4 2016q2/arm-none-eabi/lib/fpu/libc.a(lib_a-strcasecmp.o)
 .data          0x01f657dc        0x0 C:/Program Files (x86)/GNU Tools ARM Embedded/5.4 2016q2/arm-none-eabi/lib/fpu/libc.a(lib_a-strcat.o)
 .data          0x01f657dc        0x0 C:/Program Files (x86)/GNU Tools ARM Embedded/5.4 2016q2/arm-none-eabi/lib/fpu/libc.a(lib_a-strchr.o)
 .data          0x01f657dc        0x0 C:/Program Files (x86)/GNU Tools ARM Embedded/5.4 2016q2/arm-none-eabi/lib/fpu/libc.a(lib_a-strcmp.o)
 .data          0x01f657dc        0x0 C:/Program Files (x86)/GNU Tools ARM Embedded/5.4 2016q2/arm-none-eabi/lib/fpu/libc.a(lib_a-strcpy.o)
 .data          0x01f657dc        0x0 C:/Program Files (x86)/GNU Tools ARM Embedded/5.4 2016q2/arm-none-eabi/lib/fpu/libc.a(lib_a-strlen-stub.o)
 .data          0x01f657dc        0x0 C:/Program Files (x86)/GNU Tools ARM Embedded/5.4 2016q2/arm-none-eabi/lib/fpu/libc.a(lib_a-strncasecmp.o)
 .data          0x01f657dc        0x0 C:/Program Files (x86)/GNU Tools ARM Embedded/5.4 2016q2/arm-none-eabi/lib/fpu/libc.a(lib_a-strncpy.o)
 .data          0x01f657dc        0x0 C:/Program Files (x86)/GNU Tools ARM Embedded/5.4 2016q2/arm-none-eabi/lib/fpu/libc.a(lib_a-strrchr.o)
 .data          0x01f657dc        0x0 C:/Program Files (x86)/GNU Tools ARM Embedded/5.4 2016q2/arm-none-eabi/lib/fpu/libc.a(lib_a-strstr.o)
 .data          0x01f657dc        0x0 C:/Program Files (x86)/GNU Tools ARM Embedded/5.4 2016q2/arm-none-eabi/lib/fpu/libc.a(lib_a-svfprintf.o)
 .data          0x01f657dc        0x0 C:/Program Files (x86)/GNU Tools ARM Embedded/5.4 2016q2/arm-none-eabi/lib/fpu/libc.a(lib_a-toupper.o)
 .data          0x01f657dc        0x0 C:/Program Files (x86)/GNU Tools ARM Embedded/5.4 2016q2/arm-none-eabi/lib/fpu/libc.a(lib_a-vfprintf.o)
 .data          0x01f657dc        0x0 C:/Program Files (x86)/GNU Tools ARM Embedded/5.4 2016q2/arm-none-eabi/lib/fpu/libc.a(lib_a-vprintf.o)
 .data          0x01f657dc        0x0 C:/Program Files (x86)/GNU Tools ARM Embedded/5.4 2016q2/arm-none-eabi/lib/fpu/libc.a(lib_a-wsetup.o)
 .data          0x01f657dc        0x0 C:/Program Files (x86)/GNU Tools ARM Embedded/5.4 2016q2/arm-none-eabi/lib/fpu/libc.a(lib_a-__atexit.o)
 .data          0x01f657dc        0x0 C:/Program Files (x86)/GNU Tools ARM Embedded/5.4 2016q2/arm-none-eabi/lib/fpu/libc.a(lib_a-ctype_.o)
 .data.__ctype_ptr__
                0x01f657dc        0x4 C:/Program Files (x86)/GNU Tools ARM Embedded/5.4 2016q2/arm-none-eabi/lib/fpu/libc.a(lib_a-ctype_.o)
                0x01f657dc                __ctype_ptr__
 .data          0x01f657e0        0x0 C:/Program Files (x86)/GNU Tools ARM Embedded/5.4 2016q2/arm-none-eabi/lib/fpu/libc.a(lib_a-dtoa.o)
 .data          0x01f657e0        0x0 C:/Program Files (x86)/GNU Tools ARM Embedded/5.4 2016q2/arm-none-eabi/lib/fpu/libc.a(lib_a-fflush.o)
 .data          0x01f657e0        0x0 C:/Program Files (x86)/GNU Tools ARM Embedded/5.4 2016q2/arm-none-eabi/lib/fpu/libc.a(lib_a-findfp.o)
 .data          0x01f657e0        0x0 C:/Program Files (x86)/GNU Tools ARM Embedded/5.4 2016q2/arm-none-eabi/lib/fpu/libc.a(lib_a-freer.o)
 .data          0x01f657e0        0x0 C:/Program Files (x86)/GNU Tools ARM Embedded/5.4 2016q2/arm-none-eabi/lib/fpu/libc.a(lib_a-fwalk.o)
 .data          0x01f657e0        0x0 C:/Program Files (x86)/GNU Tools ARM Embedded/5.4 2016q2/arm-none-eabi/lib/fpu/libc.a(lib_a-impure.o)
 .data.impure_data
                0x01f657e0      0x428 C:/Program Files (x86)/GNU Tools ARM Embedded/5.4 2016q2/arm-none-eabi/lib/fpu/libc.a(lib_a-impure.o)
 .data._impure_ptr
                0x01f65c08        0x4 C:/Program Files (x86)/GNU Tools ARM Embedded/5.4 2016q2/arm-none-eabi/lib/fpu/libc.a(lib_a-impure.o)
                0x01f65c08                _impure_ptr
 .data          0x01f65c0c        0x0 C:/Program Files (x86)/GNU Tools ARM Embedded/5.4 2016q2/arm-none-eabi/lib/fpu/libc.a(lib_a-locale.o)
 .data.lc_message_charset
                0x01f65c0c       0x20 C:/Program Files (x86)/GNU Tools ARM Embedded/5.4 2016q2/arm-none-eabi/lib/fpu/libc.a(lib_a-locale.o)
 .data.lconv    0x01f65c2c       0x38 C:/Program Files (x86)/GNU Tools ARM Embedded/5.4 2016q2/arm-none-eabi/lib/fpu/libc.a(lib_a-locale.o)
 .data.lc_ctype_charset
                0x01f65c64       0x20 C:/Program Files (x86)/GNU Tools ARM Embedded/5.4 2016q2/arm-none-eabi/lib/fpu/libc.a(lib_a-locale.o)
 .data.__mb_cur_max
                0x01f65c84        0x4 C:/Program Files (x86)/GNU Tools ARM Embedded/5.4 2016q2/arm-none-eabi/lib/fpu/libc.a(lib_a-locale.o)
                0x01f65c84                __mb_cur_max
 .data          0x01f65c88        0x0 C:/Program Files (x86)/GNU Tools ARM Embedded/5.4 2016q2/arm-none-eabi/lib/fpu/libc.a(lib_a-makebuf.o)
 .data          0x01f65c88        0x0 C:/Program Files (x86)/GNU Tools ARM Embedded/5.4 2016q2/arm-none-eabi/lib/fpu/libc.a(lib_a-memchr-stub.o)
 .data          0x01f65c88        0x0 C:/Program Files (x86)/GNU Tools ARM Embedded/5.4 2016q2/arm-none-eabi/lib/fpu/libc.a(lib_a-mprec.o)
 .data          0x01f65c88        0x0 C:/Program Files (x86)/GNU Tools ARM Embedded/5.4 2016q2/arm-none-eabi/lib/fpu/libc.a(lib_a-stdio.o)
 .data          0x01f65c88        0x0 C:/Program Files (x86)/GNU Tools ARM Embedded/5.4 2016q2/arm-none-eabi/lib/fpu/libc.a(lib_a-svfiprintf.o)
 .data          0x01f65c88        0x0 C:/Program Files (x86)/GNU Tools ARM Embedded/5.4 2016q2/arm-none-eabi/lib/fpu/libc.a(lib_a-vfiprintf.o)
 .data          0x01f65c88        0x0 C:/Program Files (x86)/GNU Tools ARM Embedded/5.4 2016q2/arm-none-eabi/lib/fpu/libc.a(lib_a-writer.o)
 .data          0x01f65c88        0x0 C:/Program Files (x86)/GNU Tools ARM Embedded/5.4 2016q2/arm-none-eabi/lib/fpu/libc.a(lib_a-callocr.o)
 .data          0x01f65c88        0x0 C:/Program Files (x86)/GNU Tools ARM Embedded/5.4 2016q2/arm-none-eabi/lib/fpu/libc.a(lib_a-closer.o)
 .data          0x01f65c88        0x0 C:/Program Files (x86)/GNU Tools ARM Embedded/5.4 2016q2/arm-none-eabi/lib/fpu/libc.a(lib_a-fclose.o)
 .data          0x01f65c88        0x0 C:/Program Files (x86)/GNU Tools ARM Embedded/5.4 2016q2/arm-none-eabi/lib/fpu/libc.a(lib_a-fputwc.o)
 .data          0x01f65c88        0x0 C:/Program Files (x86)/GNU Tools ARM Embedded/5.4 2016q2/arm-none-eabi/lib/fpu/libc.a(lib_a-fstatr.o)
 .data          0x01f65c88        0x0 C:/Program Files (x86)/GNU Tools ARM Embedded/5.4 2016q2/arm-none-eabi/lib/fpu/libc.a(lib_a-fvwrite.o)
 .data          0x01f65c88        0x0 C:/Program Files (x86)/GNU Tools ARM Embedded/5.4 2016q2/arm-none-eabi/lib/fpu/libc.a(lib_a-isattyr.o)
 .data          0x01f65c88        0x0 C:/Program Files (x86)/GNU Tools ARM Embedded/5.4 2016q2/arm-none-eabi/lib/fpu/libc.a(lib_a-lseekr.o)
 .data          0x01f65c88        0x0 C:/Program Files (x86)/GNU Tools ARM Embedded/5.4 2016q2/arm-none-eabi/lib/fpu/libc.a(lib_a-readr.o)
 .data          0x01f65c88        0x0 C:/Program Files (x86)/GNU Tools ARM Embedded/5.4 2016q2/arm-none-eabi/lib/fpu/libc.a(lib_a-wbuf.o)
 .data          0x01f65c88        0x0 C:/Program Files (x86)/GNU Tools ARM Embedded/5.4 2016q2/arm-none-eabi/lib/fpu/libc.a(lib_a-wcrtomb.o)
 .data          0x01f65c88        0x0 C:/Program Files (x86)/GNU Tools ARM Embedded/5.4 2016q2/arm-none-eabi/lib/fpu/libc.a(lib_a-wctomb_r.o)
 .data.__wctomb
                0x01f65c88        0x4 C:/Program Files (x86)/GNU Tools ARM Embedded/5.4 2016q2/arm-none-eabi/lib/fpu/libc.a(lib_a-wctomb_r.o)
                0x01f65c88                __wctomb
 .data          0x01f65c8c        0x0 C:/Program Files (x86)/GNU Tools ARM Embedded/5.4 2016q2/lib/gcc/arm-none-eabi/5.4.1/fpu/libgcc.a(_udivsi3.o)
 .data          0x01f65c8c        0x0 C:/Program Files (x86)/GNU Tools ARM Embedded/5.4 2016q2/lib/gcc/arm-none-eabi/5.4.1/fpu/libgcc.a(_divsi3.o)
 .data          0x01f65c8c        0x0 C:/Program Files (x86)/GNU Tools ARM Embedded/5.4 2016q2/lib/gcc/arm-none-eabi/5.4.1/fpu/libgcc.a(_dvmd_tls.o)
 .data          0x01f65c8c        0x0 C:/Program Files (x86)/GNU Tools ARM Embedded/5.4 2016q2/lib/gcc/arm-none-eabi/5.4.1/fpu/libgcc.a(_aeabi_uldivmod.o)
 .data          0x01f65c8c        0x0 C:/Program Files (x86)/GNU Tools ARM Embedded/5.4 2016q2/lib/gcc/arm-none-eabi/5.4.1/fpu/libgcc.a(_udivmoddi4.o)
 .data          0x01f65c8c        0x0 C:/Program Files (x86)/GNU Tools ARM Embedded/5.4 2016q2/lib/gcc/arm-none-eabi/5.4.1/fpu/libgcc.a(_clzdi2.o)
 .data          0x01f65c8c        0x0 C:/Program Files (x86)/GNU Tools ARM Embedded/5.4 2016q2/lib/gcc/arm-none-eabi/5.4.1/fpu/libgcc.a(_clzsi2.o)
 .data          0x01f65c8c        0x0 uspi/lib/libuspi.a(uspilibrary.o)
 .data          0x01f65c8c        0x0 uspi/lib/libuspi.a(dwhcidevice.o)
 .data          0x01f65c8c        0x0 uspi/lib/libuspi.a(dwhciregister.o)
 .data          0x01f65c8c        0x0 uspi/lib/libuspi.a(dwhcixferstagedata.o)
 .data          0x01f65c8c        0x0 uspi/lib/libuspi.a(usbdevice.o)
 .data.s_ucNextAddress
                0x01f65c8c        0x1 uspi/lib/libuspi.a(usbdevice.o)
 .data          0x01f65c8d        0x0 uspi/lib/libuspi.a(usbendpoint.o)
 .data          0x01f65c8d        0x0 uspi/lib/libuspi.a(usbrequest.o)
 .data          0x01f65c8d        0x0 uspi/lib/libuspi.a(devicenameservice.o)
 .data          0x01f65c8d        0x0 uspi/lib/libuspi.a(macaddress.o)
 .data          0x01f65c8d        0x0 uspi/lib/libuspi.a(smsc951x.o)
 .data          0x01f65c8d        0x0 uspi/lib/libuspi.a(lan7800.o)
 *fill*         0x01f65c8d        0x3 
 .data.s_nDeviceNumber
                0x01f65c90        0x4 uspi/lib/libuspi.a(lan7800.o)
 .data          0x01f65c94        0x0 uspi/lib/libuspi.a(string.o)
 .data          0x01f65c94        0x0 uspi/lib/libuspi.a(util.o)
 .data          0x01f65c94        0x0 uspi/lib/libuspi.a(usbmassdevice.o)
 .data.s_nDeviceNumber
                0x01f65c94        0x4 uspi/lib/libuspi.a(usbmassdevice.o)
 .data          0x01f65c98        0x0 uspi/lib/libuspi.a(dwhciframeschednper.o)
 .data          0x01f65c98        0x0 uspi/lib/libuspi.a(dwhciframeschedper.o)
 .data          0x01f65c98        0x0 uspi/lib/libuspi.a(usbkeyboard.o)
 .data.s_nDeviceNumber
                0x01f65c98        0x4 uspi/lib/libuspi.a(usbkeyboard.o)
 .data          0x01f65c9c        0x0 uspi/lib/libuspi.a(dwhcirootport.o)
 .data          0x01f65c9c        0x0 uspi/lib/libuspi.a(usbmouse.o)
 .data.s_nDeviceNumber
                0x01f65c9c        0x4 uspi/lib/libuspi.a(usbmouse.o)
 .data          0x01f65ca0        0x0 uspi/lib/libuspi.a(dwhciframeschednsplit.o)
 .data          0x01f65ca0        0x0 uspi/lib/libuspi.a(usbgamepad.o)
 .data.s_nDeviceNumber
                0x01f65ca0        0x4 uspi/lib/libuspi.a(usbgamepad.o)
 *fill*         0x01f65ca4        0x4 
 .data.writeBuf.5735
                0x01f65ca8       0x30 uspi/lib/libuspi.a(usbgamepad.o)
 .data          0x01f65cd8        0x0 uspi/lib/libuspi.a(synchronize.o)
 .data          0x01f65cd8        0x0 uspi/lib/libuspi.a(usbstring.o)
 .data          0x01f65cd8        0x0 uspi/lib/libuspi.a(usbmidi.o)
 .data.s_nDeviceNumber
                0x01f65cd8        0x4 uspi/lib/libuspi.a(usbmidi.o)
 .data          0x01f65cdc        0x0 uspi/lib/libuspi.a(usbconfigparser.o)
 .data          0x01f65cdc        0x0 uspi/lib/libuspi.a(usbdevicefactory.o)
 .data          0x01f65cdc        0x0 uspi/lib/libuspi.a(usbstandardhub.o)
 .data          0x01f65cdc        0x0 uspi/lib/libuspi.a(keymap.o)

.data1
 *(.data1)
                0x01f65cdc                _edata = .
                [!provide]                PROVIDE (edata, .)
                0x01f65cdc                __bss_start = .
                0x01f65cdc                __bss_start__ = .

.bss            0x01f68000   0x180004
 *(.dynbss)
 *(.bss .bss.* .gnu.linkonce.b.*)
 .bss           0x01f68000        0x0 armc-start.o
 .bss           0x01f68000        0x0 armc-cstartup.o
 .bss           0x01f68000        0x0 armc-cstubs.o
 .bss.__env     0x01f68000        0x4 armc-cstubs.o
                0x01f68000                __env
 .bss.heap_end.5349
                0x01f68004        0x4 armc-cstubs.o
 .bss           0x01f68008        0x0 armc-cppstubs.o
 .bss.__dso_handle
                0x01f68008        0x4 armc-cppstubs.o
                0x01f68008                __dso_handle
 .bss           0x01f6800c        0x0 exception.o
 .bss           0x01f6800c        0x0 main.o
 .bss._ZN9SingletonI13InputMappingsE11m_pInstanceE
                0x01f6800c        0x4 main.o
                0x01f6800c                Singleton<InputMappings>::m_pInstance
 .bss._ZN9SingletonI8KeyboardE11m_pInstanceE
                0x01f68010        0x4 main.o
                0x01f68010                Singleton<Keyboard>::m_pInstance
 .bss.extraRAM  0x01f68014        0x1 main.o
                0x01f68014                extraRAM
 *fill*         0x01f68015        0x3 
 .bss.roms      0x01f68018    0x20810 main.o
                0x01f68018                roms
 .bss.m_IEC_Commands
                0x01f88828    0x149b0 main.o
                0x01f88828                m_IEC_Commands
 .bss.displayPNGIcons
                0x01f9d1d8        0x1 main.o
                0x01f9d1d8                displayPNGIcons
 .bss.supportUARTInput
                0x01f9d1d9        0x1 main.o
                0x01f9d1d9                supportUARTInput
 *fill*         0x01f9d1da        0x2 
 .bss.diskCaddy
                0x01f9d1dc       0x18 main.o
                0x01f9d1dc                diskCaddy
 .bss.fileBrowserSelectedName
                0x01f9d1f4        0x4 main.o
                0x01f9d1f4                fileBrowserSelectedName
 .bss.m_EMMC    0x01f9d1f8       0x78 main.o
                0x01f9d1f8                m_EMMC
 .bss.s_u8Memory
                0x01f9d270     0xc000 main.o
                0x01f9d270                s_u8Memory
 .bss.invertIECInputs
                0x01fa9270        0x1 main.o
                0x01fa9270                invertIECInputs
 *fill*         0x01fa9271        0x3 
 .bss._ZL10snoopIndex
                0x01fa9274        0x4 main.o
 .bss.emulating
                0x01fa9278        0x1 main.o
                0x01fa9278                emulating
 .bss.quickBoot
                0x01fa9279        0x1 main.o
                0x01fa9279                quickBoot
 *fill*         0x01fa927a        0x2 
 .bss.pi1541    0x01fa927c      0x11c main.o
                0x01fa927c                pi1541
 .bss.tempBuffer
                0x01fa9398      0x400 main.o
                0x01fa9398                tempBuffer
 .bss.soundOnGPIO
                0x01fa9798        0x1 main.o
                0x01fa9798                soundOnGPIO
 .bss.splitIECLines
                0x01fa9799        0x1 main.o
                0x01fa9799                splitIECLines
 .bss.graphIEC  0x01fa979a        0x1 main.o
                0x01fa979a                graphIEC
 .bss.onResetChangeToStartingFolder
                0x01fa979b        0x1 main.o
                0x01fa979b                onResetChangeToStartingFolder
 .bss._ZL7snoopPC
                0x01fa979c        0x4 main.o
 .bss.disableSD2IECCommands
                0x01fa97a0        0x1 main.o
                0x01fa97a0                disableSD2IECCommands
 *fill*         0x01fa97a1        0x3 
 .bss.screen    0x01fa97a4       0x20 main.o
                0x01fa97a4                screen
 .bss           0x01fa97c4        0x0 rpi-aux.o
 .bss           0x01fa97c4        0x0 rpi-mailbox-interface.o
 .bss.property.6397
                0x01fa97c4      0x408 rpi-mailbox-interface.o
 *fill*         0x01fa9bcc        0x4 
 .bss.pt        0x01fa9bd0     0x8000 rpi-mailbox-interface.o
 .bss.pt_index  0x01fb1bd0        0x4 rpi-mailbox-interface.o
 .bss           0x01fb1bd4        0x0 rpi-mailbox.o
 .bss           0x01fb1bd4        0x0 rpi-gpio.o
 .bss.gpiovirtbuf
                0x01fb1bd4        0x4 rpi-gpio.o
 .bss.touchbuf  0x01fb1bd8        0x4 rpi-gpio.o
 *fill*         0x01fb1bdc        0x4 
 .bss.enables_disables
                0x01fb1be0        0x8 rpi-gpio.o
 .bss           0x01fb1be8        0x0 rpi-interrupts.o
 .bss           0x01fb1be8        0x0 cache.o
 .bss           0x01fb1be8        0x0 ff.o
 .bss._ZL6DirBuf
                0x01fb1be8      0x260 ff.o
 .bss._ZL4Fsid  0x01fb1e48        0x2 ff.o
 *fill*         0x01fb1e4a        0x6 
 .bss._ZL5FatFs
                0x01fb1e50        0x4 ff.o
 *fill*         0x01fb1e54        0x4 
 .bss._ZL6LfnBuf
                0x01fb1e58      0x200 ff.o
 .bss           0x01fb2058        0x0 interrupt.o
 .bss.Params    0x01fb2058      0x120 interrupt.o
 .bss.IRQHandlers
                0x01fb2178      0x120 interrupt.o
 .bss           0x01fb2298        0x0 keyboard.o
 .bss           0x01fb2298        0x0 Pi1541.o
 .bss           0x01fb2298        0x0 DiskImage.o
 .bss._ZN9DiskImage10readBufferE
                0x01fb2298    0x80000 DiskImage.o
                0x01fb2298                DiskImage::readBuffer
 .bss._ZL17compressionBuffer
                0x02032298    0xa8000 DiskImage.o
 .bss           0x020da298        0x0 iec_bus.o
 .bss._ZN7IEC_Bus12DataSetToOutE
                0x020da298        0x1 iec_bus.o
                0x020da298                IEC_Bus::DataSetToOut
 *fill*         0x020da299        0x7 
 .bss._ZN7IEC_Bus11inputRepeatE
                0x020da2a0       0x14 iec_bus.o
                0x020da2a0                IEC_Bus::inputRepeat
 .bss._ZN7IEC_Bus8VIA_AtnaE
                0x020da2b4        0x1 iec_bus.o
                0x020da2b4                IEC_Bus::VIA_Atna
 *fill*         0x020da2b5        0x3 
 .bss._ZN7IEC_Bus11InputButtonE
                0x020da2b8        0x5 iec_bus.o
                0x020da2b8                IEC_Bus::InputButton
 .bss._ZN7IEC_Bus9ResettingE
                0x020da2bd        0x1 iec_bus.o
                0x020da2bd                IEC_Bus::Resetting
 .bss._ZN7IEC_Bus13ClockSetToOutE
                0x020da2be        0x1 iec_bus.o
                0x020da2be                IEC_Bus::ClockSetToOut
 .bss._ZN7IEC_Bus8VIA_DataE
                0x020da2bf        0x1 iec_bus.o
                0x020da2bf                IEC_Bus::VIA_Data
 .bss._ZN7IEC_Bus15inputRepeatPrevE
                0x020da2c0       0x14 iec_bus.o
                0x020da2c0                IEC_Bus::inputRepeatPrev
 .bss._ZN7IEC_Bus15invertIECInputsE
                0x020da2d4        0x1 iec_bus.o
                0x020da2d4                IEC_Bus::invertIECInputs
 .bss._ZN7IEC_Bus8PI_ResetE
                0x020da2d5        0x1 iec_bus.o
                0x020da2d5                IEC_Bus::PI_Reset
 .bss._ZN7IEC_Bus8PI_ClockE
                0x020da2d6        0x1 iec_bus.o
                0x020da2d6                IEC_Bus::PI_Clock
 .bss._ZN7IEC_Bus6PI_AtnE
                0x020da2d7        0x1 iec_bus.o
                0x020da2d7                IEC_Bus::PI_Atn
 .bss._ZN7IEC_Bus20inputRepeatThresholdE
                0x020da2d8       0x14 iec_bus.o
                0x020da2d8                IEC_Bus::inputRepeatThreshold
 .bss._ZN7IEC_Bus3VIAE
                0x020da2ec        0x4 iec_bus.o
                0x020da2ec                IEC_Bus::VIA
 .bss._ZN7IEC_Bus13myOutsGPFSEL0E
                0x020da2f0        0x4 iec_bus.o
                0x020da2f0                IEC_Bus::myOutsGPFSEL0
 .bss._ZN7IEC_Bus13myOutsGPFSEL1E
                0x020da2f4        0x4 iec_bus.o
                0x020da2f4                IEC_Bus::myOutsGPFSEL1
 .bss._ZN7IEC_Bus13splitIECLinesE
                0x020da2f8        0x1 iec_bus.o
                0x020da2f8                IEC_Bus::splitIECLines
 *fill*         0x020da2f9        0x7 
 .bss._ZN7IEC_Bus15InputButtonPrevE
                0x020da300        0x5 iec_bus.o
                0x020da300                IEC_Bus::InputButtonPrev
 .bss._ZN7IEC_Bus7PI_DataE
                0x020da305        0x1 iec_bus.o
                0x020da305                IEC_Bus::PI_Data
 .bss._ZN7IEC_Bus11OutputSoundE
                0x020da306        0x1 iec_bus.o
                0x020da306                IEC_Bus::OutputSound
 .bss._ZN7IEC_Bus16AtnaDataSetToOutE
                0x020da307        0x1 iec_bus.o
                0x020da307                IEC_Bus::AtnaDataSetToOut
 .bss._ZN7IEC_Bus15validInputCountE
                0x020da308       0x14 iec_bus.o
                0x020da308                IEC_Bus::validInputCount
 .bss._ZN7IEC_Bus9VIA_ClockE
                0x020da31c        0x1 iec_bus.o
                0x020da31c                IEC_Bus::VIA_Clock
 .bss._ZN7IEC_Bus9OutputLEDE
                0x020da31d        0x1 iec_bus.o
                0x020da31d                IEC_Bus::OutputLED
 .bss           0x020da31e        0x0 iec_commands.o
 *fill*         0x020da31e        0x2 
 .bss._ZL12ErrorMessage
                0x020da320       0x40 iec_commands.o
 .bss           0x020da360        0x0 m6502.o
 .bss           0x020da360        0x0 m6522.o
 .bss           0x020da360        0x0 drive.o
 .bss           0x020da360        0x0 gcr.o
 .bss           0x020da360        0x0 prot.o
 .bss           0x020da360        0x0 lz.o
 .bss           0x020da360        0x0 emmc.o
 .bss           0x020da360        0x0 diskio.o
 .bss._ZL5pEMMC
                0x020da360        0x4 diskio.o
 .bss           0x020da364        0x0 options.o
 .bss           0x020da364        0x0 Screen.o
 .bss._ZL27stbi__unpremultiply_on_load
                0x020da364        0x4 Screen.o
 .bss._ZL20stbi__de_iphone_flag
                0x020da368        0x4 Screen.o
 .bss._ZL22stbi__g_failure_reason
                0x020da36c        0x4 Screen.o
 .bss._ZL29stbi__vertically_flip_on_load
                0x020da370        0x4 Screen.o
 .bss           0x020da374        0x0 Timer.o
 .bss.m_KernelTimer
                0x020da374      0x140 Timer.o
 .bss.Ticks     0x020da4b4        0x4 Timer.o
 .bss           0x020da4b8        0x0 FileBrowser.o
 .bss._ZN11FileBrowser9LSTBufferE
                0x020da4b8     0x2000 FileBrowser.o
                0x020da4b8                FileBrowser::LSTBuffer
 .bss           0x020dc4b8        0x0 DiskCaddy.o
 .bss._ZL6buffer
                0x020dc4b8      0x100 DiskCaddy.o
 .bss           0x020dc5b8        0x0 ROMs.o
 .bss           0x020dc5b8        0x0 InputMappings.o
 .bss._ZN13InputMappings21directDiskSwapRequestE
                0x020dc5b8        0x4 InputMappings.o
                0x020dc5b8                InputMappings::directDiskSwapRequest
 .bss           0x020dc5bc        0x0 xga_font_data.o
 .bss           0x020dc5bc        0x0 C:/Program Files (x86)/GNU Tools ARM Embedded/5.4 2016q2/arm-none-eabi/lib/fpu/libc.a(lib_a-abs.o)
 .bss           0x020dc5bc        0x0 C:/Program Files (x86)/GNU Tools ARM Embedded/5.4 2016q2/arm-none-eabi/lib/fpu/libc.a(lib_a-aeabi_atexit.o)
 .bss           0x020dc5bc        0x0 C:/Program Files (x86)/GNU Tools ARM Embedded/5.4 2016q2/arm-none-eabi/lib/fpu/libc.a(lib_a-cxa_atexit.o)
 .bss           0x020dc5bc        0x0 C:/Program Files (x86)/GNU Tools ARM Embedded/5.4 2016q2/arm-none-eabi/lib/fpu/libc.a(lib_a-init.o)
 .bss           0x020dc5bc        0x0 C:/Program Files (x86)/GNU Tools ARM Embedded/5.4 2016q2/arm-none-eabi/lib/fpu/libc.a(lib_a-isdigit.o)
 .bss           0x020dc5bc        0x0 C:/Program Files (x86)/GNU Tools ARM Embedded/5.4 2016q2/arm-none-eabi/lib/fpu/libc.a(lib_a-isspace.o)
 .bss           0x020dc5bc        0x0 C:/Program Files (x86)/GNU Tools ARM Embedded/5.4 2016q2/arm-none-eabi/lib/fpu/libc.a(lib_a-malloc.o)
 .bss           0x020dc5bc        0x0 C:/Program Files (x86)/GNU Tools ARM Embedded/5.4 2016q2/arm-none-eabi/lib/fpu/libc.a(lib_a-mallocr.o)
 .bss.__malloc_max_total_mem
                0x020dc5bc        0x4 C:/Program Files (x86)/GNU Tools ARM Embedded/5.4 2016q2/arm-none-eabi/lib/fpu/libc.a(lib_a-mallocr.o)
                0x020dc5bc                __malloc_max_total_mem
 .bss.__malloc_max_sbrked_mem
                0x020dc5c0        0x4 C:/Program Files (x86)/GNU Tools ARM Embedded/5.4 2016q2/arm-none-eabi/lib/fpu/libc.a(lib_a-mallocr.o)
                0x020dc5c0                __malloc_max_sbrked_mem
 .bss.__malloc_top_pad
                0x020dc5c4        0x4 C:/Program Files (x86)/GNU Tools ARM Embedded/5.4 2016q2/arm-none-eabi/lib/fpu/libc.a(lib_a-mallocr.o)
                0x020dc5c4                __malloc_top_pad
 .bss.__malloc_current_mallinfo
                0x020dc5c8       0x28 C:/Program Files (x86)/GNU Tools ARM Embedded/5.4 2016q2/arm-none-eabi/lib/fpu/libc.a(lib_a-mallocr.o)
                0x020dc5c8                __malloc_current_mallinfo
 .bss           0x020dc5f0        0x0 C:/Program Files (x86)/GNU Tools ARM Embedded/5.4 2016q2/arm-none-eabi/lib/fpu/libc.a(lib_a-memcmp.o)
 .bss           0x020dc5f0        0x0 C:/Program Files (x86)/GNU Tools ARM Embedded/5.4 2016q2/arm-none-eabi/lib/fpu/libc.a(lib_a-memcpy-stub.o)
 .bss           0x020dc5f0        0x0 C:/Program Files (x86)/GNU Tools ARM Embedded/5.4 2016q2/arm-none-eabi/lib/fpu/libc.a(lib_a-memmove.o)
 .bss           0x020dc5f0        0x0 C:/Program Files (x86)/GNU Tools ARM Embedded/5.4 2016q2/arm-none-eabi/lib/fpu/libc.a(lib_a-memset.o)
 .bss           0x020dc5f0        0x0 C:/Program Files (x86)/GNU Tools ARM Embedded/5.4 2016q2/arm-none-eabi/lib/fpu/libc.a(lib_a-mlock.o)
 .bss           0x020dc5f0        0x0 C:/Program Files (x86)/GNU Tools ARM Embedded/5.4 2016q2/arm-none-eabi/lib/fpu/libc.a(lib_a-printf.o)
 .bss           0x020dc5f0        0x0 C:/Program Files (x86)/GNU Tools ARM Embedded/5.4 2016q2/arm-none-eabi/lib/fpu/libc.a(lib_a-rand.o)
 .bss           0x020dc5f0        0x0 C:/Program Files (x86)/GNU Tools ARM Embedded/5.4 2016q2/arm-none-eabi/lib/fpu/libc.a(lib_a-realloc.o)
 .bss           0x020dc5f0        0x0 C:/Program Files (x86)/GNU Tools ARM Embedded/5.4 2016q2/arm-none-eabi/lib/fpu/libc.a(lib_a-reallocr.o)
 .bss           0x020dc5f0        0x0 C:/Program Files (x86)/GNU Tools ARM Embedded/5.4 2016q2/arm-none-eabi/lib/fpu/libc.a(lib_a-reent.o)
 .bss           0x020dc5f0        0x0 C:/Program Files (x86)/GNU Tools ARM Embedded/5.4 2016q2/arm-none-eabi/lib/fpu/libc.a(lib_a-sbrkr.o)
 .bss           0x020dc5f0        0x0 C:/Program Files (x86)/GNU Tools ARM Embedded/5.4 2016q2/arm-none-eabi/lib/fpu/libc.a(lib_a-snprintf.o)
 .bss           0x020dc5f0        0x0 C:/Program Files (x86)/GNU Tools ARM Embedded/5.4 2016q2/arm-none-eabi/lib/fpu/libc.a(lib_a-sprintf.o)
 .bss           0x020dc5f0        0x0 C:/Program Files (x86)/GNU Tools ARM Embedded/5.4 2016q2/arm-none-eabi/lib/fpu/libc.a(lib_a-strcasecmp.o)
 .bss           0x020dc5f0        0x0 C:/Program Files (x86)/GNU Tools ARM Embedded/5.4 2016q2/arm-none-eabi/lib/fpu/libc.a(lib_a-strcat.o)
 .bss           0x020dc5f0        0x0 C:/Program Files (x86)/GNU Tools ARM Embedded/5.4 2016q2/arm-none-eabi/lib/fpu/libc.a(lib_a-strchr.o)
 .bss           0x020dc5f0        0x0 C:/Program Files (x86)/GNU Tools ARM Embedded/5.4 2016q2/arm-none-eabi/lib/fpu/libc.a(lib_a-strcmp.o)
 .bss           0x020dc5f0        0x0 C:/Program Files (x86)/GNU Tools ARM Embedded/5.4 2016q2/arm-none-eabi/lib/fpu/libc.a(lib_a-strcpy.o)
 .bss           0x020dc5f0        0x0 C:/Program Files (x86)/GNU Tools ARM Embedded/5.4 2016q2/arm-none-eabi/lib/fpu/libc.a(lib_a-strlen-stub.o)
 .bss           0x020dc5f0        0x0 C:/Program Files (x86)/GNU Tools ARM Embedded/5.4 2016q2/arm-none-eabi/lib/fpu/libc.a(lib_a-strncasecmp.o)
 .bss           0x020dc5f0        0x0 C:/Program Files (x86)/GNU Tools ARM Embedded/5.4 2016q2/arm-none-eabi/lib/fpu/libc.a(lib_a-strncpy.o)
 .bss           0x020dc5f0        0x0 C:/Program Files (x86)/GNU Tools ARM Embedded/5.4 2016q2/arm-none-eabi/lib/fpu/libc.a(lib_a-strrchr.o)
 .bss           0x020dc5f0        0x0 C:/Program Files (x86)/GNU Tools ARM Embedded/5.4 2016q2/arm-none-eabi/lib/fpu/libc.a(lib_a-strstr.o)
 .bss           0x020dc5f0        0x0 C:/Program Files (x86)/GNU Tools ARM Embedded/5.4 2016q2/arm-none-eabi/lib/fpu/libc.a(lib_a-svfprintf.o)
 .bss           0x020dc5f0        0x0 C:/Program Files (x86)/GNU Tools ARM Embedded/5.4 2016q2/arm-none-eabi/lib/fpu/libc.a(lib_a-toupper.o)
 .bss           0x020dc5f0        0x0 C:/Program Files (x86)/GNU Tools ARM Embedded/5.4 2016q2/arm-none-eabi/lib/fpu/libc.a(lib_a-vfprintf.o)
 .bss           0x020dc5f0        0x0 C:/Program Files (x86)/GNU Tools ARM Embedded/5.4 2016q2/arm-none-eabi/lib/fpu/libc.a(lib_a-vprintf.o)
 .bss           0x020dc5f0        0x0 C:/Program Files (x86)/GNU Tools ARM Embedded/5.4 2016q2/arm-none-eabi/lib/fpu/libc.a(lib_a-wsetup.o)
 .bss           0x020dc5f0        0x0 C:/Program Files (x86)/GNU Tools ARM Embedded/5.4 2016q2/arm-none-eabi/lib/fpu/libc.a(lib_a-__atexit.o)
 .bss           0x020dc5f0        0x0 C:/Program Files (x86)/GNU Tools ARM Embedded/5.4 2016q2/arm-none-eabi/lib/fpu/libc.a(lib_a-ctype_.o)
 .bss           0x020dc5f0        0x0 C:/Program Files (x86)/GNU Tools ARM Embedded/5.4 2016q2/arm-none-eabi/lib/fpu/libc.a(lib_a-dtoa.o)
 .bss           0x020dc5f0        0x0 C:/Program Files (x86)/GNU Tools ARM Embedded/5.4 2016q2/arm-none-eabi/lib/fpu/libc.a(lib_a-fflush.o)
 .bss           0x020dc5f0        0x0 C:/Program Files (x86)/GNU Tools ARM Embedded/5.4 2016q2/arm-none-eabi/lib/fpu/libc.a(lib_a-findfp.o)
 .bss           0x020dc5f0        0x0 C:/Program Files (x86)/GNU Tools ARM Embedded/5.4 2016q2/arm-none-eabi/lib/fpu/libc.a(lib_a-freer.o)
 .bss           0x020dc5f0        0x0 C:/Program Files (x86)/GNU Tools ARM Embedded/5.4 2016q2/arm-none-eabi/lib/fpu/libc.a(lib_a-fwalk.o)
 .bss           0x020dc5f0        0x0 C:/Program Files (x86)/GNU Tools ARM Embedded/5.4 2016q2/arm-none-eabi/lib/fpu/libc.a(lib_a-impure.o)
 .bss           0x020dc5f0        0x0 C:/Program Files (x86)/GNU Tools ARM Embedded/5.4 2016q2/arm-none-eabi/lib/fpu/libc.a(lib_a-locale.o)
 .bss._PathLocale
                0x020dc5f0        0x4 C:/Program Files (x86)/GNU Tools ARM Embedded/5.4 2016q2/arm-none-eabi/lib/fpu/libc.a(lib_a-locale.o)
                0x020dc5f0                _PathLocale
 .bss.__nlocale_changed
                0x020dc5f4        0x4 C:/Program Files (x86)/GNU Tools ARM Embedded/5.4 2016q2/arm-none-eabi/lib/fpu/libc.a(lib_a-locale.o)
                0x020dc5f4                __nlocale_changed
 .bss.__mlocale_changed
                0x020dc5f8        0x4 C:/Program Files (x86)/GNU Tools ARM Embedded/5.4 2016q2/arm-none-eabi/lib/fpu/libc.a(lib_a-locale.o)
                0x020dc5f8                __mlocale_changed
 .bss           0x020dc5fc        0x0 C:/Program Files (x86)/GNU Tools ARM Embedded/5.4 2016q2/arm-none-eabi/lib/fpu/libc.a(lib_a-makebuf.o)
 .bss           0x020dc5fc        0x0 C:/Program Files (x86)/GNU Tools ARM Embedded/5.4 2016q2/arm-none-eabi/lib/fpu/libc.a(lib_a-memchr-stub.o)
 .bss           0x020dc5fc        0x0 C:/Program Files (x86)/GNU Tools ARM Embedded/5.4 2016q2/arm-none-eabi/lib/fpu/libc.a(lib_a-mprec.o)
 .bss           0x020dc5fc        0x0 C:/Program Files (x86)/GNU Tools ARM Embedded/5.4 2016q2/arm-none-eabi/lib/fpu/libc.a(lib_a-stdio.o)
 .bss           0x020dc5fc        0x0 C:/Program Files (x86)/GNU Tools ARM Embedded/5.4 2016q2/arm-none-eabi/lib/fpu/libc.a(lib_a-svfiprintf.o)
 .bss           0x020dc5fc        0x0 C:/Program Files (x86)/GNU Tools ARM Embedded/5.4 2016q2/arm-none-eabi/lib/fpu/libc.a(lib_a-vfiprintf.o)
 .bss           0x020dc5fc        0x0 C:/Program Files (x86)/GNU Tools ARM Embedded/5.4 2016q2/arm-none-eabi/lib/fpu/libc.a(lib_a-writer.o)
 .bss           0x020dc5fc        0x0 C:/Program Files (x86)/GNU Tools ARM Embedded/5.4 2016q2/arm-none-eabi/lib/fpu/libc.a(lib_a-callocr.o)
 .bss           0x020dc5fc        0x0 C:/Program Files (x86)/GNU Tools ARM Embedded/5.4 2016q2/arm-none-eabi/lib/fpu/libc.a(lib_a-closer.o)
 .bss           0x020dc5fc        0x0 C:/Program Files (x86)/GNU Tools ARM Embedded/5.4 2016q2/arm-none-eabi/lib/fpu/libc.a(lib_a-fclose.o)
 .bss           0x020dc5fc        0x0 C:/Program Files (x86)/GNU Tools ARM Embedded/5.4 2016q2/arm-none-eabi/lib/fpu/libc.a(lib_a-fputwc.o)
 .bss           0x020dc5fc        0x0 C:/Program Files (x86)/GNU Tools ARM Embedded/5.4 2016q2/arm-none-eabi/lib/fpu/libc.a(lib_a-fstatr.o)
 .bss           0x020dc5fc        0x0 C:/Program Files (x86)/GNU Tools ARM Embedded/5.4 2016q2/arm-none-eabi/lib/fpu/libc.a(lib_a-fvwrite.o)
 .bss           0x020dc5fc        0x0 C:/Program Files (x86)/GNU Tools ARM Embedded/5.4 2016q2/arm-none-eabi/lib/fpu/libc.a(lib_a-isattyr.o)
 .bss           0x020dc5fc        0x0 C:/Program Files (x86)/GNU Tools ARM Embedded/5.4 2016q2/arm-none-eabi/lib/fpu/libc.a(lib_a-lseekr.o)
 .bss           0x020dc5fc        0x0 C:/Program Files (x86)/GNU Tools ARM Embedded/5.4 2016q2/arm-none-eabi/lib/fpu/libc.a(lib_a-readr.o)
 .bss           0x020dc5fc        0x0 C:/Program Files (x86)/GNU Tools ARM Embedded/5.4 2016q2/arm-none-eabi/lib/fpu/libc.a(lib_a-wbuf.o)
 .bss           0x020dc5fc        0x0 C:/Program Files (x86)/GNU Tools ARM Embedded/5.4 2016q2/arm-none-eabi/lib/fpu/libc.a(lib_a-wcrtomb.o)
 .bss           0x020dc5fc        0x0 C:/Program Files (x86)/GNU Tools ARM Embedded/5.4 2016q2/arm-none-eabi/lib/fpu/libc.a(lib_a-wctomb_r.o)
 .bss           0x020dc5fc        0x0 C:/Program Files (x86)/GNU Tools ARM Embedded/5.4 2016q2/lib/gcc/arm-none-eabi/5.4.1/fpu/libgcc.a(_udivsi3.o)
 .bss           0x020dc5fc        0x0 C:/Program Files (x86)/GNU Tools ARM Embedded/5.4 2016q2/lib/gcc/arm-none-eabi/5.4.1/fpu/libgcc.a(_divsi3.o)
 .bss           0x020dc5fc        0x0 C:/Program Files (x86)/GNU Tools ARM Embedded/5.4 2016q2/lib/gcc/arm-none-eabi/5.4.1/fpu/libgcc.a(_dvmd_tls.o)
 .bss           0x020dc5fc        0x0 C:/Program Files (x86)/GNU Tools ARM Embedded/5.4 2016q2/lib/gcc/arm-none-eabi/5.4.1/fpu/libgcc.a(_aeabi_uldivmod.o)
 .bss           0x020dc5fc        0x0 C:/Program Files (x86)/GNU Tools ARM Embedded/5.4 2016q2/lib/gcc/arm-none-eabi/5.4.1/fpu/libgcc.a(_udivmoddi4.o)
 .bss           0x020dc5fc        0x0 C:/Program Files (x86)/GNU Tools ARM Embedded/5.4 2016q2/lib/gcc/arm-none-eabi/5.4.1/fpu/libgcc.a(_clzdi2.o)
 .bss           0x020dc5fc        0x0 C:/Program Files (x86)/GNU Tools ARM Embedded/5.4 2016q2/lib/gcc/arm-none-eabi/5.4.1/fpu/libgcc.a(_clzsi2.o)
 .bss           0x020dc5fc        0x0 uspi/lib/libuspi.a(uspilibrary.o)
 .bss.s_pLibrary
                0x020dc5fc        0x4 uspi/lib/libuspi.a(uspilibrary.o)
 .bss           0x020dc600        0x0 uspi/lib/libuspi.a(dwhcidevice.o)
 .bss           0x020dc600        0x0 uspi/lib/libuspi.a(dwhciregister.o)
 .bss           0x020dc600        0x0 uspi/lib/libuspi.a(dwhcixferstagedata.o)
 .bss           0x020dc600        0x0 uspi/lib/libuspi.a(usbdevice.o)
 .bss           0x020dc600        0x0 uspi/lib/libuspi.a(usbendpoint.o)
 .bss           0x020dc600        0x0 uspi/lib/libuspi.a(usbrequest.o)
 .bss           0x020dc600        0x0 uspi/lib/libuspi.a(devicenameservice.o)
 .bss.s_pThis   0x020dc600        0x4 uspi/lib/libuspi.a(devicenameservice.o)
 .bss           0x020dc604        0x0 uspi/lib/libuspi.a(macaddress.o)
 .bss           0x020dc604        0x0 uspi/lib/libuspi.a(smsc951x.o)
 .bss.s_nDeviceNumber
                0x020dc604        0x4 uspi/lib/libuspi.a(smsc951x.o)
 .bss           0x020dc608        0x0 uspi/lib/libuspi.a(lan7800.o)
 .bss           0x020dc608        0x0 uspi/lib/libuspi.a(string.o)
 .bss           0x020dc608        0x0 uspi/lib/libuspi.a(util.o)
 .bss           0x020dc608        0x0 uspi/lib/libuspi.a(usbmassdevice.o)
 .bss           0x020dc608        0x0 uspi/lib/libuspi.a(dwhciframeschednper.o)
 .bss           0x020dc608        0x0 uspi/lib/libuspi.a(dwhciframeschedper.o)
 .bss           0x020dc608        0x0 uspi/lib/libuspi.a(usbkeyboard.o)
 .bss           0x020dc608        0x0 uspi/lib/libuspi.a(dwhcirootport.o)
 .bss           0x020dc608        0x0 uspi/lib/libuspi.a(usbmouse.o)
 .bss           0x020dc608        0x0 uspi/lib/libuspi.a(dwhciframeschednsplit.o)
 .bss           0x020dc608        0x0 uspi/lib/libuspi.a(usbgamepad.o)
 .bss           0x020dc608        0x0 uspi/lib/libuspi.a(synchronize.o)
 .bss.s_bWereEnabled
                0x020dc608        0x4 uspi/lib/libuspi.a(synchronize.o)
 .bss.s_nCriticalLevel
                0x020dc60c        0x4 uspi/lib/libuspi.a(synchronize.o)
 .bss           0x020dc610        0x0 uspi/lib/libuspi.a(usbstring.o)
 .bss           0x020dc610        0x0 uspi/lib/libuspi.a(usbmidi.o)
 .bss           0x020dc610        0x0 uspi/lib/libuspi.a(usbconfigparser.o)
 .bss           0x020dc610        0x0 uspi/lib/libuspi.a(usbdevicefactory.o)
 .bss           0x020dc610        0x0 uspi/lib/libuspi.a(usbstandardhub.o)
 .bss           0x020dc610        0x0 uspi/lib/libuspi.a(keymap.o)
 *(COMMON)
 *fill*         0x020dc610     0x39f0 
 COMMON         0x020e0000     0x8000 cache.o
                0x020e0000                PageTable2
                0x020e4000                PageTable
 COMMON         0x020e8000        0x4 C:/Program Files (x86)/GNU Tools ARM Embedded/5.4 2016q2/arm-none-eabi/lib/fpu/libc.a(lib_a-reent.o)
                0x020e8000                errno
                0x020e8004                . = ALIGN ((. != 0x0)?0x4:0x1)
                0x020e8004                _bss_end__ = .
                0x020e8004                __bss_end__ = .
                0x020e8004                . = ALIGN (0x4)
                0x020e8004                . = ALIGN (0x4)
                0x020e8004                __end__ = .
                0x020e8004                _end = .
                [!provide]                PROVIDE (end, .)

.stab
 *(.stab)

.stabstr
 *(.stabstr)

.stab.excl
 *(.stab.excl)

.stab.exclstr
 *(.stab.exclstr)

.stab.index
 *(.stab.index)

.stab.indexstr
 *(.stab.indexstr)

.comment        0x00000000       0x6e
 *(.comment)
 .comment       0x00000000       0x6e armc-cstartup.o
                                 0x6f (size before relaxing)
 .comment       0x0000006e       0x6f armc-cstubs.o
 .comment       0x0000006e       0x6f armc-cppstubs.o
 .comment       0x0000006e       0x6f exception.o
 .comment       0x0000006e       0x6f main.o
 .comment       0x0000006e       0x6f rpi-aux.o
 .comment       0x0000006e       0x6f rpi-mailbox-interface.o
 .comment       0x0000006e       0x6f rpi-mailbox.o
 .comment       0x0000006e       0x6f rpi-gpio.o
 .comment       0x0000006e       0x6f rpi-interrupts.o
 .comment       0x0000006e       0x6f cache.o
 .comment       0x0000006e       0x6f ff.o
 .comment       0x0000006e       0x6f interrupt.o
 .comment       0x0000006e       0x6f keyboard.o
 .comment       0x0000006e       0x6f Pi1541.o
 .comment       0x0000006e       0x6f DiskImage.o
 .comment       0x0000006e       0x6f iec_bus.o
 .comment       0x0000006e       0x6f iec_commands.o
 .comment       0x0000006e       0x6f m6502.o
 .comment       0x0000006e       0x6f m6522.o
 .comment       0x0000006e       0x6f drive.o
 .comment       0x0000006e       0x6f gcr.o
 .comment       0x0000006e       0x6f prot.o
 .comment       0x0000006e       0x6f lz.o
 .comment       0x0000006e       0x6f emmc.o
 .comment       0x0000006e       0x6f diskio.o
 .comment       0x0000006e       0x6f options.o
 .comment       0x0000006e       0x6f Screen.o
 .comment       0x0000006e       0x6f Timer.o
 .comment       0x0000006e       0x6f FileBrowser.o
 .comment       0x0000006e       0x6f DiskCaddy.o
 .comment       0x0000006e       0x6f ROMs.o
 .comment       0x0000006e       0x6f InputMappings.o
 .comment       0x0000006e       0x6f xga_font_data.o
 .comment       0x0000006e       0x6f uspi/lib/libuspi.a(uspilibrary.o)
 .comment       0x0000006e       0x6f uspi/lib/libuspi.a(dwhcidevice.o)
 .comment       0x0000006e       0x6f uspi/lib/libuspi.a(dwhciregister.o)
 .comment       0x0000006e       0x6f uspi/lib/libuspi.a(dwhcixferstagedata.o)
 .comment       0x0000006e       0x6f uspi/lib/libuspi.a(usbdevice.o)
 .comment       0x0000006e       0x6f uspi/lib/libuspi.a(usbendpoint.o)
 .comment       0x0000006e       0x6f uspi/lib/libuspi.a(usbrequest.o)
 .comment       0x0000006e       0x6f uspi/lib/libuspi.a(devicenameservice.o)
 .comment       0x0000006e       0x6f uspi/lib/libuspi.a(macaddress.o)
 .comment       0x0000006e       0x6f uspi/lib/libuspi.a(smsc951x.o)
 .comment       0x0000006e       0x6f uspi/lib/libuspi.a(lan7800.o)
 .comment       0x0000006e       0x6f uspi/lib/libuspi.a(string.o)
 .comment       0x0000006e       0x6f uspi/lib/libuspi.a(util.o)
 .comment       0x0000006e       0x6f uspi/lib/libuspi.a(usbmassdevice.o)
 .comment       0x0000006e       0x6f uspi/lib/libuspi.a(dwhciframeschednper.o)
 .comment       0x0000006e       0x6f uspi/lib/libuspi.a(dwhciframeschedper.o)
 .comment       0x0000006e       0x6f uspi/lib/libuspi.a(usbkeyboard.o)
 .comment       0x0000006e       0x6f uspi/lib/libuspi.a(dwhcirootport.o)
 .comment       0x0000006e       0x6f uspi/lib/libuspi.a(usbmouse.o)
 .comment       0x0000006e       0x6f uspi/lib/libuspi.a(dwhciframeschednsplit.o)
 .comment       0x0000006e       0x6f uspi/lib/libuspi.a(usbgamepad.o)
 .comment       0x0000006e       0x6f uspi/lib/libuspi.a(synchronize.o)
 .comment       0x0000006e       0x6f uspi/lib/libuspi.a(usbstring.o)
 .comment       0x0000006e       0x6f uspi/lib/libuspi.a(usbmidi.o)
 .comment       0x0000006e       0x6f uspi/lib/libuspi.a(usbconfigparser.o)
 .comment       0x0000006e       0x6f uspi/lib/libuspi.a(usbdevicefactory.o)
 .comment       0x0000006e       0x6f uspi/lib/libuspi.a(usbstandardhub.o)
 .comment       0x0000006e       0x6f uspi/lib/libuspi.a(keymap.o)

.debug
 *(.debug)

.line
 *(.line)

.debug_srcinfo
 *(.debug_srcinfo)

.debug_sfnames
 *(.debug_sfnames)

.debug_aranges
 *(.debug_aranges)

.debug_pubnames
 *(.debug_pubnames)

.debug_info
 *(.debug_info .gnu.linkonce.wi.*)

.debug_abbrev
 *(.debug_abbrev)

.debug_line
 *(.debug_line)

.debug_frame    0x00000000     0x1964
 *(.debug_frame)
 .debug_frame   0x00000000       0x20 C:/Program Files (x86)/GNU Tools ARM Embedded/5.4 2016q2/arm-none-eabi/lib/fpu/libc.a(lib_a-abs.o)
 .debug_frame   0x00000020       0x2c C:/Program Files (x86)/GNU Tools ARM Embedded/5.4 2016q2/arm-none-eabi/lib/fpu/libc.a(lib_a-aeabi_atexit.o)
 .debug_frame   0x0000004c       0x2c C:/Program Files (x86)/GNU Tools ARM Embedded/5.4 2016q2/arm-none-eabi/lib/fpu/libc.a(lib_a-cxa_atexit.o)
 .debug_frame   0x00000078       0x34 C:/Program Files (x86)/GNU Tools ARM Embedded/5.4 2016q2/arm-none-eabi/lib/fpu/libc.a(lib_a-init.o)
 .debug_frame   0x000000ac       0x20 C:/Program Files (x86)/GNU Tools ARM Embedded/5.4 2016q2/arm-none-eabi/lib/fpu/libc.a(lib_a-isdigit.o)
 .debug_frame   0x000000cc       0x20 C:/Program Files (x86)/GNU Tools ARM Embedded/5.4 2016q2/arm-none-eabi/lib/fpu/libc.a(lib_a-isspace.o)
 .debug_frame   0x000000ec       0x48 C:/Program Files (x86)/GNU Tools ARM Embedded/5.4 2016q2/arm-none-eabi/lib/fpu/libc.a(lib_a-malloc.o)
 .debug_frame   0x00000134       0x84 C:/Program Files (x86)/GNU Tools ARM Embedded/5.4 2016q2/arm-none-eabi/lib/fpu/libc.a(lib_a-mallocr.o)
 .debug_frame   0x000001b8       0x38 C:/Program Files (x86)/GNU Tools ARM Embedded/5.4 2016q2/arm-none-eabi/lib/fpu/libc.a(lib_a-memcmp.o)
 .debug_frame   0x000001f0       0x3c C:/Program Files (x86)/GNU Tools ARM Embedded/5.4 2016q2/arm-none-eabi/lib/fpu/libc.a(lib_a-memcpy-stub.o)
 .debug_frame   0x0000022c       0x40 C:/Program Files (x86)/GNU Tools ARM Embedded/5.4 2016q2/arm-none-eabi/lib/fpu/libc.a(lib_a-memmove.o)
 .debug_frame   0x0000026c       0x30 C:/Program Files (x86)/GNU Tools ARM Embedded/5.4 2016q2/arm-none-eabi/lib/fpu/libc.a(lib_a-memset.o)
 .debug_frame   0x0000029c       0x30 C:/Program Files (x86)/GNU Tools ARM Embedded/5.4 2016q2/arm-none-eabi/lib/fpu/libc.a(lib_a-mlock.o)
 .debug_frame   0x000002cc       0x74 C:/Program Files (x86)/GNU Tools ARM Embedded/5.4 2016q2/arm-none-eabi/lib/fpu/libc.a(lib_a-printf.o)
 .debug_frame   0x00000340       0x3c C:/Program Files (x86)/GNU Tools ARM Embedded/5.4 2016q2/arm-none-eabi/lib/fpu/libc.a(lib_a-rand.o)
 .debug_frame   0x0000037c       0x2c C:/Program Files (x86)/GNU Tools ARM Embedded/5.4 2016q2/arm-none-eabi/lib/fpu/libc.a(lib_a-realloc.o)
 .debug_frame   0x000003a8       0x70 C:/Program Files (x86)/GNU Tools ARM Embedded/5.4 2016q2/arm-none-eabi/lib/fpu/libc.a(lib_a-reallocr.o)
 .debug_frame   0x00000418       0x64 C:/Program Files (x86)/GNU Tools ARM Embedded/5.4 2016q2/arm-none-eabi/lib/fpu/libc.a(lib_a-reent.o)
 .debug_frame   0x0000047c       0x3c C:/Program Files (x86)/GNU Tools ARM Embedded/5.4 2016q2/arm-none-eabi/lib/fpu/libc.a(lib_a-sbrkr.o)
 .debug_frame   0x000004b8       0x9c C:/Program Files (x86)/GNU Tools ARM Embedded/5.4 2016q2/arm-none-eabi/lib/fpu/libc.a(lib_a-snprintf.o)
 .debug_frame   0x00000554       0x7c C:/Program Files (x86)/GNU Tools ARM Embedded/5.4 2016q2/arm-none-eabi/lib/fpu/libc.a(lib_a-sprintf.o)
 .debug_frame   0x000005d0       0x30 C:/Program Files (x86)/GNU Tools ARM Embedded/5.4 2016q2/arm-none-eabi/lib/fpu/libc.a(lib_a-strcasecmp.o)
 .debug_frame   0x00000600       0x2c C:/Program Files (x86)/GNU Tools ARM Embedded/5.4 2016q2/arm-none-eabi/lib/fpu/libc.a(lib_a-strcat.o)
 .debug_frame   0x0000062c       0x48 C:/Program Files (x86)/GNU Tools ARM Embedded/5.4 2016q2/arm-none-eabi/lib/fpu/libc.a(lib_a-strchr.o)
 .debug_frame   0x00000674       0x40 C:/Program Files (x86)/GNU Tools ARM Embedded/5.4 2016q2/arm-none-eabi/lib/fpu/libc.a(lib_a-strcmp.o)
 .debug_frame   0x000006b4       0x20 C:/Program Files (x86)/GNU Tools ARM Embedded/5.4 2016q2/arm-none-eabi/lib/fpu/libc.a(lib_a-strcpy.o)
 .debug_frame   0x000006d4       0x20 C:/Program Files (x86)/GNU Tools ARM Embedded/5.4 2016q2/arm-none-eabi/lib/fpu/libc.a(lib_a-strlen-stub.o)
 .debug_frame   0x000006f4       0x34 C:/Program Files (x86)/GNU Tools ARM Embedded/5.4 2016q2/arm-none-eabi/lib/fpu/libc.a(lib_a-strncasecmp.o)
 .debug_frame   0x00000728       0x3c C:/Program Files (x86)/GNU Tools ARM Embedded/5.4 2016q2/arm-none-eabi/lib/fpu/libc.a(lib_a-strncpy.o)
 .debug_frame   0x00000764       0x3c C:/Program Files (x86)/GNU Tools ARM Embedded/5.4 2016q2/arm-none-eabi/lib/fpu/libc.a(lib_a-strrchr.o)
 .debug_frame   0x000007a0      0x104 C:/Program Files (x86)/GNU Tools ARM Embedded/5.4 2016q2/arm-none-eabi/lib/fpu/libc.a(lib_a-strstr.o)
 .debug_frame   0x000008a4       0x74 C:/Program Files (x86)/GNU Tools ARM Embedded/5.4 2016q2/arm-none-eabi/lib/fpu/libc.a(lib_a-svfprintf.o)
 .debug_frame   0x00000918       0x20 C:/Program Files (x86)/GNU Tools ARM Embedded/5.4 2016q2/arm-none-eabi/lib/fpu/libc.a(lib_a-toupper.o)
 .debug_frame   0x00000938       0xd8 C:/Program Files (x86)/GNU Tools ARM Embedded/5.4 2016q2/arm-none-eabi/lib/fpu/libc.a(lib_a-vfprintf.o)
 .debug_frame   0x00000a10       0x48 C:/Program Files (x86)/GNU Tools ARM Embedded/5.4 2016q2/arm-none-eabi/lib/fpu/libc.a(lib_a-vprintf.o)
 .debug_frame   0x00000a58       0x40 C:/Program Files (x86)/GNU Tools ARM Embedded/5.4 2016q2/arm-none-eabi/lib/fpu/libc.a(lib_a-wsetup.o)
 .debug_frame   0x00000a98       0x3c C:/Program Files (x86)/GNU Tools ARM Embedded/5.4 2016q2/arm-none-eabi/lib/fpu/libc.a(lib_a-__atexit.o)
 .debug_frame   0x00000ad4       0xac C:/Program Files (x86)/GNU Tools ARM Embedded/5.4 2016q2/arm-none-eabi/lib/fpu/libc.a(lib_a-dtoa.o)
 .debug_frame   0x00000b80       0xa4 C:/Program Files (x86)/GNU Tools ARM Embedded/5.4 2016q2/arm-none-eabi/lib/fpu/libc.a(lib_a-fflush.o)
 .debug_frame   0x00000c24      0x174 C:/Program Files (x86)/GNU Tools ARM Embedded/5.4 2016q2/arm-none-eabi/lib/fpu/libc.a(lib_a-findfp.o)
 .debug_frame   0x00000d98       0x78 C:/Program Files (x86)/GNU Tools ARM Embedded/5.4 2016q2/arm-none-eabi/lib/fpu/libc.a(lib_a-freer.o)
 .debug_frame   0x00000e10       0x80 C:/Program Files (x86)/GNU Tools ARM Embedded/5.4 2016q2/arm-none-eabi/lib/fpu/libc.a(lib_a-fwalk.o)
 .debug_frame   0x00000e90       0xa4 C:/Program Files (x86)/GNU Tools ARM Embedded/5.4 2016q2/arm-none-eabi/lib/fpu/libc.a(lib_a-locale.o)
 .debug_frame   0x00000f34       0x74 C:/Program Files (x86)/GNU Tools ARM Embedded/5.4 2016q2/arm-none-eabi/lib/fpu/libc.a(lib_a-makebuf.o)
 .debug_frame   0x00000fa8       0x34 C:/Program Files (x86)/GNU Tools ARM Embedded/5.4 2016q2/arm-none-eabi/lib/fpu/libc.a(lib_a-memchr-stub.o)
 .debug_frame   0x00000fdc      0x2c0 C:/Program Files (x86)/GNU Tools ARM Embedded/5.4 2016q2/arm-none-eabi/lib/fpu/libc.a(lib_a-mprec.o)
 .debug_frame   0x0000129c       0x9c C:/Program Files (x86)/GNU Tools ARM Embedded/5.4 2016q2/arm-none-eabi/lib/fpu/libc.a(lib_a-stdio.o)
 .debug_frame   0x00001338       0x9c C:/Program Files (x86)/GNU Tools ARM Embedded/5.4 2016q2/arm-none-eabi/lib/fpu/libc.a(lib_a-svfiprintf.o)
 .debug_frame   0x000013d4       0xec C:/Program Files (x86)/GNU Tools ARM Embedded/5.4 2016q2/arm-none-eabi/lib/fpu/libc.a(lib_a-vfiprintf.o)
 .debug_frame   0x000014c0       0x34 C:/Program Files (x86)/GNU Tools ARM Embedded/5.4 2016q2/arm-none-eabi/lib/fpu/libc.a(lib_a-writer.o)
 .debug_frame   0x000014f4       0x34 C:/Program Files (x86)/GNU Tools ARM Embedded/5.4 2016q2/arm-none-eabi/lib/fpu/libc.a(lib_a-callocr.o)
 .debug_frame   0x00001528       0x34 C:/Program Files (x86)/GNU Tools ARM Embedded/5.4 2016q2/arm-none-eabi/lib/fpu/libc.a(lib_a-closer.o)
 .debug_frame   0x0000155c       0x58 C:/Program Files (x86)/GNU Tools ARM Embedded/5.4 2016q2/arm-none-eabi/lib/fpu/libc.a(lib_a-fclose.o)
 .debug_frame   0x000015b4       0x98 C:/Program Files (x86)/GNU Tools ARM Embedded/5.4 2016q2/arm-none-eabi/lib/fpu/libc.a(lib_a-fputwc.o)
 .debug_frame   0x0000164c       0x34 C:/Program Files (x86)/GNU Tools ARM Embedded/5.4 2016q2/arm-none-eabi/lib/fpu/libc.a(lib_a-fstatr.o)
 .debug_frame   0x00001680       0x80 C:/Program Files (x86)/GNU Tools ARM Embedded/5.4 2016q2/arm-none-eabi/lib/fpu/libc.a(lib_a-fvwrite.o)
 .debug_frame   0x00001700       0x34 C:/Program Files (x86)/GNU Tools ARM Embedded/5.4 2016q2/arm-none-eabi/lib/fpu/libc.a(lib_a-isattyr.o)
 .debug_frame   0x00001734       0x34 C:/Program Files (x86)/GNU Tools ARM Embedded/5.4 2016q2/arm-none-eabi/lib/fpu/libc.a(lib_a-lseekr.o)
 .debug_frame   0x00001768       0x34 C:/Program Files (x86)/GNU Tools ARM Embedded/5.4 2016q2/arm-none-eabi/lib/fpu/libc.a(lib_a-readr.o)
 .debug_frame   0x0000179c       0x4c C:/Program Files (x86)/GNU Tools ARM Embedded/5.4 2016q2/arm-none-eabi/lib/fpu/libc.a(lib_a-wbuf.o)
 .debug_frame   0x000017e8       0x78 C:/Program Files (x86)/GNU Tools ARM Embedded/5.4 2016q2/arm-none-eabi/lib/fpu/libc.a(lib_a-wcrtomb.o)
 .debug_frame   0x00001860       0x50 C:/Program Files (x86)/GNU Tools ARM Embedded/5.4 2016q2/arm-none-eabi/lib/fpu/libc.a(lib_a-wctomb_r.o)
 .debug_frame   0x000018b0       0x20 C:/Program Files (x86)/GNU Tools ARM Embedded/5.4 2016q2/lib/gcc/arm-none-eabi/5.4.1/fpu/libgcc.a(_udivsi3.o)
 .debug_frame   0x000018d0       0x20 C:/Program Files (x86)/GNU Tools ARM Embedded/5.4 2016q2/lib/gcc/arm-none-eabi/5.4.1/fpu/libgcc.a(_divsi3.o)
 .debug_frame   0x000018f0       0x2c C:/Program Files (x86)/GNU Tools ARM Embedded/5.4 2016q2/lib/gcc/arm-none-eabi/5.4.1/fpu/libgcc.a(_aeabi_uldivmod.o)
 .debug_frame   0x0000191c       0x48 C:/Program Files (x86)/GNU Tools ARM Embedded/5.4 2016q2/lib/gcc/arm-none-eabi/5.4.1/fpu/libgcc.a(_udivmoddi4.o)

.debug_str
 *(.debug_str)

.debug_loc
 *(.debug_loc)

.debug_macinfo
 *(.debug_macinfo)

.debug_weaknames
 *(.debug_weaknames)

.debug_funcnames
 *(.debug_funcnames)

.debug_typenames
 *(.debug_typenames)

.debug_varnames
 *(.debug_varnames)

.debug_pubtypes
 *(.debug_pubtypes)

.debug_ranges
 *(.debug_ranges)

.stack          0x00080000        0x0
                0x00080000                _stack = .
 *(.stack)

.ARM.attributes
                0x00000000       0x35
 *(.ARM.attributes)
 .ARM.attributes
                0x00000000       0x25 armc-start.o
 .ARM.attributes
                0x00000025       0x35 armc-cstartup.o
 .ARM.attributes
                0x0000005a       0x35 armc-cstubs.o
 .ARM.attributes
                0x0000008f       0x35 armc-cppstubs.o
 .ARM.attributes
                0x000000c4       0x35 exception.o
 .ARM.attributes
                0x000000f9       0x35 main.o
 .ARM.attributes
                0x0000012e       0x35 rpi-aux.o
 .ARM.attributes
                0x00000163       0x35 rpi-mailbox-interface.o
 .ARM.attributes
                0x00000198       0x35 rpi-mailbox.o
 .ARM.attributes
                0x000001cd       0x35 rpi-gpio.o
 .ARM.attributes
                0x00000202       0x35 rpi-interrupts.o
 .ARM.attributes
                0x00000237       0x35 cache.o
 .ARM.attributes
                0x0000026c       0x35 ff.o
 .ARM.attributes
                0x000002a1       0x35 interrupt.o
 .ARM.attributes
                0x000002d6       0x35 keyboard.o
 .ARM.attributes
                0x0000030b       0x35 Pi1541.o
 .ARM.attributes
                0x00000340       0x35 DiskImage.o
 .ARM.attributes
                0x00000375       0x35 iec_bus.o
 .ARM.attributes
                0x000003aa       0x35 iec_commands.o
 .ARM.attributes
                0x000003df       0x35 m6502.o
 .ARM.attributes
                0x00000414       0x35 m6522.o
 .ARM.attributes
                0x00000449       0x35 drive.o
 .ARM.attributes
                0x0000047e       0x35 gcr.o
 .ARM.attributes
                0x000004b3       0x35 prot.o
 .ARM.attributes
                0x000004e8       0x35 lz.o
 .ARM.attributes
                0x0000051d       0x35 emmc.o
 .ARM.attributes
                0x00000552       0x35 diskio.o
 .ARM.attributes
                0x00000587       0x35 options.o
 .ARM.attributes
                0x000005bc       0x35 Screen.o
 .ARM.attributes
                0x000005f1       0x35 Timer.o
 .ARM.attributes
                0x00000626       0x35 FileBrowser.o
 .ARM.attributes
                0x0000065b       0x35 DiskCaddy.o
 .ARM.attributes
                0x00000690       0x35 ROMs.o
 .ARM.attributes
                0x000006c5       0x35 InputMappings.o
 .ARM.attributes
                0x000006fa       0x35 xga_font_data.o
 .ARM.attributes
                0x0000072f       0x34 C:/Program Files (x86)/GNU Tools ARM Embedded/5.4 2016q2/arm-none-eabi/lib/fpu/libc.a(lib_a-abs.o)
 .ARM.attributes
                0x00000763       0x34 C:/Program Files (x86)/GNU Tools ARM Embedded/5.4 2016q2/arm-none-eabi/lib/fpu/libc.a(lib_a-aeabi_atexit.o)
 .ARM.attributes
                0x00000797       0x34 C:/Program Files (x86)/GNU Tools ARM Embedded/5.4 2016q2/arm-none-eabi/lib/fpu/libc.a(lib_a-cxa_atexit.o)
 .ARM.attributes
                0x000007cb       0x34 C:/Program Files (x86)/GNU Tools ARM Embedded/5.4 2016q2/arm-none-eabi/lib/fpu/libc.a(lib_a-init.o)
 .ARM.attributes
                0x000007ff       0x34 C:/Program Files (x86)/GNU Tools ARM Embedded/5.4 2016q2/arm-none-eabi/lib/fpu/libc.a(lib_a-isdigit.o)
 .ARM.attributes
                0x00000833       0x34 C:/Program Files (x86)/GNU Tools ARM Embedded/5.4 2016q2/arm-none-eabi/lib/fpu/libc.a(lib_a-isspace.o)
 .ARM.attributes
                0x00000867       0x34 C:/Program Files (x86)/GNU Tools ARM Embedded/5.4 2016q2/arm-none-eabi/lib/fpu/libc.a(lib_a-malloc.o)
 .ARM.attributes
                0x0000089b       0x34 C:/Program Files (x86)/GNU Tools ARM Embedded/5.4 2016q2/arm-none-eabi/lib/fpu/libc.a(lib_a-mallocr.o)
 .ARM.attributes
                0x000008cf       0x34 C:/Program Files (x86)/GNU Tools ARM Embedded/5.4 2016q2/arm-none-eabi/lib/fpu/libc.a(lib_a-memcmp.o)
 .ARM.attributes
                0x00000903       0x34 C:/Program Files (x86)/GNU Tools ARM Embedded/5.4 2016q2/arm-none-eabi/lib/fpu/libc.a(lib_a-memcpy-stub.o)
 .ARM.attributes
                0x00000937       0x34 C:/Program Files (x86)/GNU Tools ARM Embedded/5.4 2016q2/arm-none-eabi/lib/fpu/libc.a(lib_a-memmove.o)
 .ARM.attributes
                0x0000096b       0x34 C:/Program Files (x86)/GNU Tools ARM Embedded/5.4 2016q2/arm-none-eabi/lib/fpu/libc.a(lib_a-memset.o)
 .ARM.attributes
                0x0000099f       0x34 C:/Program Files (x86)/GNU Tools ARM Embedded/5.4 2016q2/arm-none-eabi/lib/fpu/libc.a(lib_a-mlock.o)
 .ARM.attributes
                0x000009d3       0x34 C:/Program Files (x86)/GNU Tools ARM Embedded/5.4 2016q2/arm-none-eabi/lib/fpu/libc.a(lib_a-printf.o)
 .ARM.attributes
                0x00000a07       0x34 C:/Program Files (x86)/GNU Tools ARM Embedded/5.4 2016q2/arm-none-eabi/lib/fpu/libc.a(lib_a-rand.o)
 .ARM.attributes
                0x00000a3b       0x34 C:/Program Files (x86)/GNU Tools ARM Embedded/5.4 2016q2/arm-none-eabi/lib/fpu/libc.a(lib_a-realloc.o)
 .ARM.attributes
                0x00000a6f       0x34 C:/Program Files (x86)/GNU Tools ARM Embedded/5.4 2016q2/arm-none-eabi/lib/fpu/libc.a(lib_a-reallocr.o)
 .ARM.attributes
                0x00000aa3       0x34 C:/Program Files (x86)/GNU Tools ARM Embedded/5.4 2016q2/arm-none-eabi/lib/fpu/libc.a(lib_a-reent.o)
 .ARM.attributes
                0x00000ad7       0x34 C:/Program Files (x86)/GNU Tools ARM Embedded/5.4 2016q2/arm-none-eabi/lib/fpu/libc.a(lib_a-sbrkr.o)
 .ARM.attributes
                0x00000b0b       0x34 C:/Program Files (x86)/GNU Tools ARM Embedded/5.4 2016q2/arm-none-eabi/lib/fpu/libc.a(lib_a-snprintf.o)
 .ARM.attributes
                0x00000b3f       0x34 C:/Program Files (x86)/GNU Tools ARM Embedded/5.4 2016q2/arm-none-eabi/lib/fpu/libc.a(lib_a-sprintf.o)
 .ARM.attributes
                0x00000b73       0x34 C:/Program Files (x86)/GNU Tools ARM Embedded/5.4 2016q2/arm-none-eabi/lib/fpu/libc.a(lib_a-strcasecmp.o)
 .ARM.attributes
                0x00000ba7       0x34 C:/Program Files (x86)/GNU Tools ARM Embedded/5.4 2016q2/arm-none-eabi/lib/fpu/libc.a(lib_a-strcat.o)
 .ARM.attributes
                0x00000bdb       0x34 C:/Program Files (x86)/GNU Tools ARM Embedded/5.4 2016q2/arm-none-eabi/lib/fpu/libc.a(lib_a-strchr.o)
 .ARM.attributes
                0x00000c0f       0x16 C:/Program Files (x86)/GNU Tools ARM Embedded/5.4 2016q2/arm-none-eabi/lib/fpu/libc.a(lib_a-strcmp.o)
 .ARM.attributes
                0x00000c25       0x34 C:/Program Files (x86)/GNU Tools ARM Embedded/5.4 2016q2/arm-none-eabi/lib/fpu/libc.a(lib_a-strcpy.o)
 .ARM.attributes
                0x00000c59       0x34 C:/Program Files (x86)/GNU Tools ARM Embedded/5.4 2016q2/arm-none-eabi/lib/fpu/libc.a(lib_a-strlen-stub.o)
 .ARM.attributes
                0x00000c8d       0x34 C:/Program Files (x86)/GNU Tools ARM Embedded/5.4 2016q2/arm-none-eabi/lib/fpu/libc.a(lib_a-strncasecmp.o)
 .ARM.attributes
                0x00000cc1       0x34 C:/Program Files (x86)/GNU Tools ARM Embedded/5.4 2016q2/arm-none-eabi/lib/fpu/libc.a(lib_a-strncpy.o)
 .ARM.attributes
                0x00000cf5       0x34 C:/Program Files (x86)/GNU Tools ARM Embedded/5.4 2016q2/arm-none-eabi/lib/fpu/libc.a(lib_a-strrchr.o)
 .ARM.attributes
                0x00000d29       0x34 C:/Program Files (x86)/GNU Tools ARM Embedded/5.4 2016q2/arm-none-eabi/lib/fpu/libc.a(lib_a-strstr.o)
 .ARM.attributes
                0x00000d5d       0x34 C:/Program Files (x86)/GNU Tools ARM Embedded/5.4 2016q2/arm-none-eabi/lib/fpu/libc.a(lib_a-svfprintf.o)
 .ARM.attributes
                0x00000d91       0x34 C:/Program Files (x86)/GNU Tools ARM Embedded/5.4 2016q2/arm-none-eabi/lib/fpu/libc.a(lib_a-toupper.o)
 .ARM.attributes
                0x00000dc5       0x34 C:/Program Files (x86)/GNU Tools ARM Embedded/5.4 2016q2/arm-none-eabi/lib/fpu/libc.a(lib_a-vfprintf.o)
 .ARM.attributes
                0x00000df9       0x34 C:/Program Files (x86)/GNU Tools ARM Embedded/5.4 2016q2/arm-none-eabi/lib/fpu/libc.a(lib_a-vprintf.o)
 .ARM.attributes
                0x00000e2d       0x34 C:/Program Files (x86)/GNU Tools ARM Embedded/5.4 2016q2/arm-none-eabi/lib/fpu/libc.a(lib_a-wsetup.o)
 .ARM.attributes
                0x00000e61       0x34 C:/Program Files (x86)/GNU Tools ARM Embedded/5.4 2016q2/arm-none-eabi/lib/fpu/libc.a(lib_a-__atexit.o)
 .ARM.attributes
                0x00000e95       0x34 C:/Program Files (x86)/GNU Tools ARM Embedded/5.4 2016q2/arm-none-eabi/lib/fpu/libc.a(lib_a-ctype_.o)
 .ARM.attributes
                0x00000ec9       0x34 C:/Program Files (x86)/GNU Tools ARM Embedded/5.4 2016q2/arm-none-eabi/lib/fpu/libc.a(lib_a-dtoa.o)
 .ARM.attributes
                0x00000efd       0x34 C:/Program Files (x86)/GNU Tools ARM Embedded/5.4 2016q2/arm-none-eabi/lib/fpu/libc.a(lib_a-fflush.o)
 .ARM.attributes
                0x00000f31       0x34 C:/Program Files (x86)/GNU Tools ARM Embedded/5.4 2016q2/arm-none-eabi/lib/fpu/libc.a(lib_a-findfp.o)
 .ARM.attributes
                0x00000f65       0x34 C:/Program Files (x86)/GNU Tools ARM Embedded/5.4 2016q2/arm-none-eabi/lib/fpu/libc.a(lib_a-freer.o)
 .ARM.attributes
                0x00000f99       0x34 C:/Program Files (x86)/GNU Tools ARM Embedded/5.4 2016q2/arm-none-eabi/lib/fpu/libc.a(lib_a-fwalk.o)
 .ARM.attributes
                0x00000fcd       0x34 C:/Program Files (x86)/GNU Tools ARM Embedded/5.4 2016q2/arm-none-eabi/lib/fpu/libc.a(lib_a-impure.o)
 .ARM.attributes
                0x00001001       0x34 C:/Program Files (x86)/GNU Tools ARM Embedded/5.4 2016q2/arm-none-eabi/lib/fpu/libc.a(lib_a-locale.o)
 .ARM.attributes
                0x00001035       0x34 C:/Program Files (x86)/GNU Tools ARM Embedded/5.4 2016q2/arm-none-eabi/lib/fpu/libc.a(lib_a-makebuf.o)
 .ARM.attributes
                0x00001069       0x34 C:/Program Files (x86)/GNU Tools ARM Embedded/5.4 2016q2/arm-none-eabi/lib/fpu/libc.a(lib_a-memchr-stub.o)
 .ARM.attributes
                0x0000109d       0x34 C:/Program Files (x86)/GNU Tools ARM Embedded/5.4 2016q2/arm-none-eabi/lib/fpu/libc.a(lib_a-mprec.o)
 .ARM.attributes
                0x000010d1       0x34 C:/Program Files (x86)/GNU Tools ARM Embedded/5.4 2016q2/arm-none-eabi/lib/fpu/libc.a(lib_a-stdio.o)
 .ARM.attributes
                0x00001105       0x34 C:/Program Files (x86)/GNU Tools ARM Embedded/5.4 2016q2/arm-none-eabi/lib/fpu/libc.a(lib_a-svfiprintf.o)
 .ARM.attributes
                0x00001139       0x34 C:/Program Files (x86)/GNU Tools ARM Embedded/5.4 2016q2/arm-none-eabi/lib/fpu/libc.a(lib_a-vfiprintf.o)
 .ARM.attributes
                0x0000116d       0x34 C:/Program Files (x86)/GNU Tools ARM Embedded/5.4 2016q2/arm-none-eabi/lib/fpu/libc.a(lib_a-writer.o)
 .ARM.attributes
                0x000011a1       0x34 C:/Program Files (x86)/GNU Tools ARM Embedded/5.4 2016q2/arm-none-eabi/lib/fpu/libc.a(lib_a-callocr.o)
 .ARM.attributes
                0x000011d5       0x34 C:/Program Files (x86)/GNU Tools ARM Embedded/5.4 2016q2/arm-none-eabi/lib/fpu/libc.a(lib_a-closer.o)
 .ARM.attributes
                0x00001209       0x34 C:/Program Files (x86)/GNU Tools ARM Embedded/5.4 2016q2/arm-none-eabi/lib/fpu/libc.a(lib_a-fclose.o)
 .ARM.attributes
                0x0000123d       0x34 C:/Program Files (x86)/GNU Tools ARM Embedded/5.4 2016q2/arm-none-eabi/lib/fpu/libc.a(lib_a-fputwc.o)
 .ARM.attributes
                0x00001271       0x34 C:/Program Files (x86)/GNU Tools ARM Embedded/5.4 2016q2/arm-none-eabi/lib/fpu/libc.a(lib_a-fstatr.o)
 .ARM.attributes
                0x000012a5       0x34 C:/Program Files (x86)/GNU Tools ARM Embedded/5.4 2016q2/arm-none-eabi/lib/fpu/libc.a(lib_a-fvwrite.o)
 .ARM.attributes
                0x000012d9       0x34 C:/Program Files (x86)/GNU Tools ARM Embedded/5.4 2016q2/arm-none-eabi/lib/fpu/libc.a(lib_a-isattyr.o)
 .ARM.attributes
                0x0000130d       0x34 C:/Program Files (x86)/GNU Tools ARM Embedded/5.4 2016q2/arm-none-eabi/lib/fpu/libc.a(lib_a-lseekr.o)
 .ARM.attributes
                0x00001341       0x34 C:/Program Files (x86)/GNU Tools ARM Embedded/5.4 2016q2/arm-none-eabi/lib/fpu/libc.a(lib_a-readr.o)
 .ARM.attributes
                0x00001375       0x34 C:/Program Files (x86)/GNU Tools ARM Embedded/5.4 2016q2/arm-none-eabi/lib/fpu/libc.a(lib_a-wbuf.o)
 .ARM.attributes
                0x000013a9       0x34 C:/Program Files (x86)/GNU Tools ARM Embedded/5.4 2016q2/arm-none-eabi/lib/fpu/libc.a(lib_a-wcrtomb.o)
 .ARM.attributes
                0x000013dd       0x34 C:/Program Files (x86)/GNU Tools ARM Embedded/5.4 2016q2/arm-none-eabi/lib/fpu/libc.a(lib_a-wctomb_r.o)
 .ARM.attributes
                0x00001411       0x18 C:/Program Files (x86)/GNU Tools ARM Embedded/5.4 2016q2/lib/gcc/arm-none-eabi/5.4.1/fpu/libgcc.a(_udivsi3.o)
 .ARM.attributes
                0x00001429       0x18 C:/Program Files (x86)/GNU Tools ARM Embedded/5.4 2016q2/lib/gcc/arm-none-eabi/5.4.1/fpu/libgcc.a(_divsi3.o)
 .ARM.attributes
                0x00001441       0x18 C:/Program Files (x86)/GNU Tools ARM Embedded/5.4 2016q2/lib/gcc/arm-none-eabi/5.4.1/fpu/libgcc.a(_dvmd_tls.o)
 .ARM.attributes
                0x00001459       0x18 C:/Program Files (x86)/GNU Tools ARM Embedded/5.4 2016q2/lib/gcc/arm-none-eabi/5.4.1/fpu/libgcc.a(_aeabi_uldivmod.o)
 .ARM.attributes
                0x00001471       0x34 C:/Program Files (x86)/GNU Tools ARM Embedded/5.4 2016q2/lib/gcc/arm-none-eabi/5.4.1/fpu/libgcc.a(_udivmoddi4.o)
 .ARM.attributes
                0x000014a5       0x18 C:/Program Files (x86)/GNU Tools ARM Embedded/5.4 2016q2/lib/gcc/arm-none-eabi/5.4.1/fpu/libgcc.a(_clzdi2.o)
 .ARM.attributes
                0x000014bd       0x18 C:/Program Files (x86)/GNU Tools ARM Embedded/5.4 2016q2/lib/gcc/arm-none-eabi/5.4.1/fpu/libgcc.a(_clzsi2.o)
 .ARM.attributes
                0x000014d5       0x35 uspi/lib/libuspi.a(uspilibrary.o)
 .ARM.attributes
                0x0000150a       0x35 uspi/lib/libuspi.a(dwhcidevice.o)
 .ARM.attributes
                0x0000153f       0x35 uspi/lib/libuspi.a(dwhciregister.o)
 .ARM.attributes
                0x00001574       0x35 uspi/lib/libuspi.a(dwhcixferstagedata.o)
 .ARM.attributes
                0x000015a9       0x35 uspi/lib/libuspi.a(usbdevice.o)
 .ARM.attributes
                0x000015de       0x35 uspi/lib/libuspi.a(usbendpoint.o)
 .ARM.attributes
                0x00001613       0x35 uspi/lib/libuspi.a(usbrequest.o)
 .ARM.attributes
                0x00001648       0x35 uspi/lib/libuspi.a(devicenameservice.o)
 .ARM.attributes
                0x0000167d       0x35 uspi/lib/libuspi.a(macaddress.o)
 .ARM.attributes
                0x000016b2       0x35 uspi/lib/libuspi.a(smsc951x.o)
 .ARM.attributes
                0x000016e7       0x35 uspi/lib/libuspi.a(lan7800.o)
 .ARM.attributes
                0x0000171c       0x35 uspi/lib/libuspi.a(string.o)
 .ARM.attributes
                0x00001751       0x35 uspi/lib/libuspi.a(util.o)
 .ARM.attributes
                0x00001786       0x35 uspi/lib/libuspi.a(usbmassdevice.o)
 .ARM.attributes
                0x000017bb       0x35 uspi/lib/libuspi.a(dwhciframeschednper.o)
 .ARM.attributes
                0x000017f0       0x35 uspi/lib/libuspi.a(dwhciframeschedper.o)
 .ARM.attributes
                0x00001825       0x35 uspi/lib/libuspi.a(usbkeyboard.o)
 .ARM.attributes
                0x0000185a       0x35 uspi/lib/libuspi.a(dwhcirootport.o)
 .ARM.attributes
                0x0000188f       0x35 uspi/lib/libuspi.a(usbmouse.o)
 .ARM.attributes
                0x000018c4       0x35 uspi/lib/libuspi.a(dwhciframeschednsplit.o)
 .ARM.attributes
                0x000018f9       0x35 uspi/lib/libuspi.a(usbgamepad.o)
 .ARM.attributes
                0x0000192e       0x35 uspi/lib/libuspi.a(synchronize.o)
 .ARM.attributes
                0x00001963       0x35 uspi/lib/libuspi.a(usbstring.o)
 .ARM.attributes
                0x00001998       0x35 uspi/lib/libuspi.a(usbmidi.o)
 .ARM.attributes
                0x000019cd       0x35 uspi/lib/libuspi.a(usbconfigparser.o)
 .ARM.attributes
                0x00001a02       0x35 uspi/lib/libuspi.a(usbdevicefactory.o)
 .ARM.attributes
                0x00001a37       0x35 uspi/lib/libuspi.a(usbstandardhub.o)
 .ARM.attributes
                0x00001a6c       0x35 uspi/lib/libuspi.a(keymap.o)
 *(.gnu.attributes)

.note.gnu.arm.ident
 *(.note.gnu.arm.ident)

/DISCARD/
 *(.note.GNU-stack)
 *(.gnu_debuglink)
 *(.gnu.lto_*)
LOAD armc-start.o
LOAD armc-cstartup.o
LOAD armc-cstubs.o
LOAD armc-cppstubs.o
LOAD exception.o
LOAD main.o
LOAD rpi-aux.o
LOAD rpi-mailbox-interface.o
LOAD rpi-mailbox.o
LOAD rpi-gpio.o
LOAD rpi-interrupts.o
LOAD cache.o
LOAD ff.o
LOAD interrupt.o
LOAD keyboard.o
LOAD Pi1541.o
LOAD DiskImage.o
LOAD iec_bus.o
LOAD iec_commands.o
LOAD m6502.o
LOAD m6522.o
LOAD drive.o
LOAD gcr.o
LOAD prot.o
LOAD lz.o
LOAD emmc.o
LOAD diskio.o
LOAD options.o
LOAD Screen.o
LOAD Timer.o
LOAD FileBrowser.o
LOAD DiskCaddy.o
LOAD ROMs.o
LOAD InputMappings.o
LOAD xga_font_data.o
LOAD C:/Program Files (x86)/GNU Tools ARM Embedded/5.4 2016q2/arm-none-eabi/lib/fpu/libc.a
LOAD C:/Program Files (x86)/GNU Tools ARM Embedded/5.4 2016q2/lib/gcc/arm-none-eabi/5.4.1/fpu/libgcc.a
LOAD uspi/lib/libuspi.a
LOAD c:\program files (x86)\gnu tools arm embedded\5.4 2016q2\bin\../arm-none-eabi/lib\libstdc++.a
OUTPUT(kernel.elf elf32-littlearm)
